(dp1
S'output'
p2
S'<type \'exceptions.SyntaxError\'> define_table argument is not a Field or Table: <input name="name" placeholder="Enter valid email id" type="text" />'
p3
sS'layer'
p4
S'C:\\Python27\\web2py\\applications\\pratilipi\\controllers/default.py'
p5
sS'code'
p6
S'# -*- coding: utf-8 -*-\n# this file is released under public domain and you can use without limitations\n\n#########################################################################\n## This is a sample controller\n## - index is the default action of any application\n## - user is required for authentication and authorization\n## - download is for downloading files uploaded in the db (does streaming)\n## - call exposes all registered services (none by default)\n#########################################################################\n\n\ndef index():\n    response.flash = T("Welcome to Pratilipi!")\n    form =SQLFORM.factory(INPUT(_name=\'name\', requires=(IS_NOT_EMPTY(error_message=\'Please enter email id\'),\n                                            IS_NOT_IN_DB(db,\'subscribers.email\')),_placeholder=\'Enter valid email id\'),\n              INPUT(_name=\'name\', requires=(IS_NOT_EMPTY(error_message=\'Please enter first name\')),_placeholder=\'Name\'),\n              INPUT(_type=\'submit\', _value=\'Subscribe\')).process()\n    return locals()\n\n\ndef user():\n    """\n    exposes:\n    http://..../[app]/default/user/login\n    http://..../[app]/default/user/logout\n    http://..../[app]/default/user/register\n    http://..../[app]/default/user/profile\n    http://..../[app]/default/user/retrieve_password\n    http://..../[app]/default/user/change_password\n    http://..../[app]/default/user/manage_users (requires membership in\n    use @auth.requires_login()\n        @auth.requires_membership(\'group name\')\n        @auth.requires_permission(\'read\',\'table name\',record_id)\n    to decorate functions that need access control\n    """\n    return dict(form=auth())\n\n@cache.action()\ndef download():\n    """\n    allows downloading of uploaded files\n    http://..../[app]/default/download/[filename]\n    """\n    return response.download(request, db)\n\n\ndef call():\n    """\n    exposes services. for example:\n    http://..../[app]/default/call/jsonrpc\n    decorate with @services.jsonrpc the functions to expose\n    supports xml, json, xmlrpc, jsonrpc, amfrpc, rss, csv\n    """\n    return service()\n\n\n@auth.requires_signature()\ndef data():\n    """\n    http://..../[app]/default/data/tables\n    http://..../[app]/default/data/create/[table]\n    http://..../[app]/default/data/read/[table]/[id]\n    http://..../[app]/default/data/update/[table]/[id]\n    http://..../[app]/default/data/delete/[table]/[id]\n    http://..../[app]/default/data/select/[table]\n    http://..../[app]/default/data/search/[table]\n    but URLs must be signed, i.e. linked with\n      A(\'table\',_href=URL(\'data/tables\',user_signature=True))\n    or with the signed load operator\n      LOAD(\'default\',\'data.load\',args=\'tables\',ajax=True,user_signature=True)\n    """\n    return dict(form=crud())\n\nresponse._vars=response._caller(index)\n'
p7
sS'snapshot'
p8
(dp9
sS'traceback'
p10
S'Traceback (most recent call last):\n  File "C:\\Python27\\web2py\\gluon\\restricted.py", line 220, in restricted\n    exec ccode in environment\n  File "C:\\Python27\\web2py\\applications\\pratilipi\\controllers/default.py", line 75, in <module>\n  File "C:\\Python27\\web2py\\gluon\\globals.py", line 385, in <lambda>\n    self._caller = lambda f: f()\n  File "C:\\Python27\\web2py\\applications\\pratilipi\\controllers/default.py", line 18, in index\n    INPUT(_type=\'submit\', _value=\'Subscribe\')).process()\n  File "C:\\Python27\\web2py\\gluon\\sqlhtml.py", line 1651, in factory\n    return SQLFORM(DAL(None).define_table(table_name, *fields),\n  File "C:\\Python27\\web2py\\gluon\\dal.py", line 8223, in define_table\n    table = self.lazy_define_table(tablename,*fields,**args)\n  File "C:\\Python27\\web2py\\gluon\\dal.py", line 8240, in lazy_define_table\n    table = table_class(self, tablename, *fields, **args)\n  File "C:\\Python27\\web2py\\gluon\\dal.py", line 8725, in __init__\n    \'define_table argument is not a Field or Table: %s\' % field)\nSyntaxError: define_table argument is not a Field or Table: <input name="name" placeholder="Enter valid email id" type="text" />\n'
p11
s.