(dp1
S'output'
p2
S"<type 'exceptions.NameError'> name 'row' is not defined"
p3
sS'layer'
p4
S'C:\\Python27\\web2py\\applications\\admin\\controllers/shell.py'
p5
sS'code'
p6
S"import sys\nimport cStringIO\nimport gluon.contrib.shell\nimport code\nimport thread\nimport cgi\nfrom gluon.shell import env\n\nif DEMO_MODE or MULTI_USER_MODE:\n    session.flash = T('disabled in demo mode')\n    redirect(URL('default', 'site'))\n\nFE = 10 ** 9\n\n\ndef index():\n    app = request.args(0) or 'admin'\n    reset()\n    return dict(app=app)\n\n\ndef callback():\n    app = request.args[0]\n    command = request.vars.statement\n    escape = command[:1] != '!'\n    history = session['history:' + app] = session.get(\n        'history:' + app, gluon.contrib.shell.History())\n    if not escape:\n        command = command[1:]\n    if command == '%reset':\n        reset()\n        return '*** reset ***'\n    elif command[0] == '%':\n        try:\n            command = session['commands:' + app][int(command[1:])]\n        except ValueError:\n            return ''\n    session['commands:' + app].append(command)\n    environ = env(app, True, extra_request=dict(is_https=request.is_https))\n    output = gluon.contrib.shell.run(history, command, environ)\n    k = len(session['commands:' + app]) - 1\n    #output = PRE(output)\n    #return TABLE(TR('In[%i]:'%k,PRE(command)),TR('Out[%i]:'%k,output))\n    return cgi.escape('In [%i] : %s%s\\n' % (k + 1, command, output))\n\n\ndef reset():\n    app = request.args(0) or 'admin'\n    session['commands:' + app] = []\n    session['history:' + app] = gluon.contrib.shell.History()\n    return 'done'\n\nresponse._vars=response._caller(callback)\n"
p7
sS'snapshot'
p8
(dp9
S'exception'
p10
(dp11
S'__hash__'
p12
S"<method-wrapper '__hash__' of exceptions.NameError object>"
p13
sS'__setattr__'
p14
S"<method-wrapper '__setattr__' of exceptions.NameError object>"
p15
sS'__reduce_ex__'
p16
S'<built-in method __reduce_ex__ of exceptions.NameError object>'
p17
sS'__getslice__'
p18
S"<method-wrapper '__getslice__' of exceptions.NameError object>"
p19
sS'__getitem__'
p20
S"<method-wrapper '__getitem__' of exceptions.NameError object>"
p21
sS'__setstate__'
p22
S'<built-in method __setstate__ of exceptions.NameError object>'
p23
sS'__reduce__'
p24
S'<built-in method __reduce__ of exceptions.NameError object>'
p25
sS'__str__'
p26
S"<method-wrapper '__str__' of exceptions.NameError object>"
p27
sS'__format__'
p28
S'<built-in method __format__ of exceptions.NameError object>'
p29
sS'__getattribute__'
p30
S"<method-wrapper '__getattribute__' of exceptions.NameError object>"
p31
sS'__class__'
p32
S"<type 'exceptions.NameError'>"
p33
sS'__unicode__'
p34
S'<built-in method __unicode__ of exceptions.NameError object>'
p35
sS'__delattr__'
p36
S"<method-wrapper '__delattr__' of exceptions.NameError object>"
p37
sS'__subclasshook__'
p38
S'<built-in method __subclasshook__ of type object>'
p39
sS'__repr__'
p40
S"<method-wrapper '__repr__' of exceptions.NameError object>"
p41
sS'__dict__'
p42
S'{}'
p43
sS'args'
p44
S'("name \'row\' is not defined",)'
p45
sS'__sizeof__'
p46
S'<built-in method __sizeof__ of exceptions.NameError object>'
p47
sS'__doc__'
p48
S"'Name not found globally.'"
p49
sS'__init__'
p50
S"<method-wrapper '__init__' of exceptions.NameError object>"
p51
sS'__new__'
p52
S'<built-in method __new__ of type object>'
p53
ssS'evalue'
p54
S"name 'row' is not defined"
p55
sS'request'
p56
cgluon.html
XML_unpickle
p57
(S's\x1b^\x00\x00<div><table><tr><td style="font-weight:bold;vertical-align:top;">ajax</td><td style="vertical-align:top;">:</td><td><div>True</div></td></tr><tr><td style="font-weight:bold;vertical-align:top;">application</td><td style="vertical-align:top;">:</td><td><div>admin</div></td></tr><tr><td style="font-weight:bold;vertical-align:top;">args</td><td style="vertical-align:top;">:</td><td><div><table><tr><td><div>pratilipi</div></td></tr></table></div></td></tr><tr><td style="font-weight:bold;vertical-align:top;">cid</td><td style="vertical-align:top;">:</td><td><div>None</div></td></tr><tr><td style="font-weight:bold;vertical-align:top;">client</td><td style="vertical-align:top;">:</td><td><div>127.0.0.1</div></td></tr><tr><td style="font-weight:bold;vertical-align:top;">controller</td><td style="vertical-align:top;">:</td><td><div>shell</div></td></tr><tr><td style="font-weight:bold;vertical-align:top;">cookies</td><td style="vertical-align:top;">:</td><td><div><table><tr><td style="font-weight:bold;vertical-align:top;">session_id_admin</td><td style="vertical-align:top;">:</td><td><div>127.0.0.1-85666d09-af9b-4787-b352-109505445ea1<table><tr><td style="font-weight:bold;vertical-align:top;">comment</td><td style="vertical-align:top;">:</td><td><div></div></td></tr><tr><td style="font-weight:bold;vertical-align:top;">domain</td><td style="vertical-align:top;">:</td><td><div></div></td></tr><tr><td style="font-weight:bold;vertical-align:top;">expires</td><td style="vertical-align:top;">:</td><td><div></div></td></tr><tr><td style="font-weight:bold;vertical-align:top;">httponly</td><td style="vertical-align:top;">:</td><td><div></div></td></tr><tr><td style="font-weight:bold;vertical-align:top;">max-age</td><td style="vertical-align:top;">:</td><td><div></div></td></tr><tr><td style="font-weight:bold;vertical-align:top;">path</td><td style="vertical-align:top;">:</td><td><div></div></td></tr><tr><td style="font-weight:bold;vertical-align:top;">secure</td><td style="vertical-align:top;">:</td><td><div></div></td></tr><tr><td style="font-weight:bold;vertical-align:top;">version</td><td style="vertical-align:top;">:</td><td><div></div></td></tr></table></div></td></tr><tr><td style="font-weight:bold;vertical-align:top;">session_id_pratilipi</td><td style="vertical-align:top;">:</td><td><div>127.0.0.1-ce873af3-03ce-45ad-b2b9-23907b1c8c60<table><tr><td style="font-weight:bold;vertical-align:top;">comment</td><td style="vertical-align:top;">:</td><td><div></div></td></tr><tr><td style="font-weight:bold;vertical-align:top;">domain</td><td style="vertical-align:top;">:</td><td><div></div></td></tr><tr><td style="font-weight:bold;vertical-align:top;">expires</td><td style="vertical-align:top;">:</td><td><div></div></td></tr><tr><td style="font-weight:bold;vertical-align:top;">httponly</td><td style="vertical-align:top;">:</td><td><div></div></td></tr><tr><td style="font-weight:bold;vertical-align:top;">max-age</td><td style="vertical-align:top;">:</td><td><div></div></td></tr><tr><td style="font-weight:bold;vertical-align:top;">path</td><td style="vertical-align:top;">:</td><td><div></div></td></tr><tr><td style="font-weight:bold;vertical-align:top;">secure</td><td style="vertical-align:top;">:</td><td><div></div></td></tr><tr><td style="font-weight:bold;vertical-align:top;">version</td><td style="vertical-align:top;">:</td><td><div></div></td></tr></table></div></td></tr></table></div></td></tr><tr><td style="font-weight:bold;vertical-align:top;">env</td><td style="vertical-align:top;">:</td><td><div><table><tr><td style="font-weight:bold;vertical-align:top;">CONTENT_LENGTH</td><td style="vertical-align:top;">:</td><td><div>104</div></td></tr><tr><td style="font-weight:bold;vertical-align:top;">CONTENT_TYPE</td><td style="vertical-align:top;">:</td><td><div>application/x-www-form-urlencoded; charset=UTF-8</div></td></tr><tr><td style="font-weight:bold;vertical-align:top;">HTTP_ACCEPT</td><td style="vertical-align:top;">:</td><td><div>*/*</div></td></tr><tr><td style="font-weight:bold;vertical-align:top;">HTTP_ACCEPT_ENCODING</td><td style="vertical-align:top;">:</td><td><div>gzip, deflate</div></td></tr><tr><td style="font-weight:bold;vertical-align:top;">HTTP_ACCEPT_LANGUAGE</td><td style="vertical-align:top;">:</td><td><div>en-US,en;q=0.5</div></td></tr><tr><td style="font-weight:bold;vertical-align:top;">HTTP_CACHE_CONTROL</td><td style="vertical-align:top;">:</td><td><div>no-cache</div></td></tr><tr><td style="font-weight:bold;vertical-align:top;">HTTP_CONNECTION</td><td style="vertical-align:top;">:</td><td><div>keep-alive</div></td></tr><tr><td style="font-weight:bold;vertical-align:top;">HTTP_CONTENT_LENGTH</td><td style="vertical-align:top;">:</td><td><div>104</div></td></tr><tr><td style="font-weight:bold;vertical-align:top;">HTTP_CONTENT_TYPE</td><td style="vertical-align:top;">:</td><td><div>application/x-www-form-urlencoded; charset=UTF-8</div></td></tr><tr><td style="font-weight:bold;vertical-align:top;">HTTP_COOKIE</td><td style="vertical-align:top;">:</td><td><div>session_id_pratilipi=127.0.0.1-ce873af3-03ce-45ad-b2b9-23907b1c8c60; session_id_admin=127.0.0.1-85666d09-af9b-4787-b352-109505445ea1</div></td></tr><tr><td style="font-weight:bold;vertical-align:top;">HTTP_HOST</td><td style="vertical-align:top;">:</td><td><div>127.0.0.1:8000</div></td></tr><tr><td style="font-weight:bold;vertical-align:top;">HTTP_PRAGMA</td><td style="vertical-align:top;">:</td><td><div>no-cache</div></td></tr><tr><td style="font-weight:bold;vertical-align:top;">HTTP_REFERER</td><td style="vertical-align:top;">:</td><td><div>http://127.0.0.1:8000/admin/shell/index/pratilipi</div></td></tr><tr><td style="font-weight:bold;vertical-align:top;">HTTP_USER_AGENT</td><td style="vertical-align:top;">:</td><td><div>Mozilla/5.0 (Windows NT 6.3; WOW64; rv:30.0) Gecko/20100101 Firefox/30.0</div></td></tr><tr><td style="font-weight:bold;vertical-align:top;">HTTP_X_REQUESTED_WITH</td><td style="vertical-align:top;">:</td><td><div>XMLHttpRequest</div></td></tr><tr><td style="font-weight:bold;vertical-align:top;">PATH_INFO</td><td style="vertical-align:top;">:</td><td><div>/admin/shell/callback/pratilipi</div></td></tr><tr><td style="font-weight:bold;vertical-align:top;">QUERY_STRING</td><td style="vertical-align:top;">:</td><td><div></div></td></tr><tr><td style="font-weight:bold;vertical-align:top;">REMOTE_ADDR</td><td style="vertical-align:top;">:</td><td><div>127.0.0.1</div></td></tr><tr><td style="font-weight:bold;vertical-align:top;">REMOTE_PORT</td><td style="vertical-align:top;">:</td><td><div>60265</div></td></tr><tr><td style="font-weight:bold;vertical-align:top;">REQUEST_METHOD</td><td style="vertical-align:top;">:</td><td><div>POST</div></td></tr><tr><td style="font-weight:bold;vertical-align:top;">SCRIPT_NAME</td><td style="vertical-align:top;">:</td><td><div></div></td></tr><tr><td style="font-weight:bold;vertical-align:top;">SERVER_NAME</td><td style="vertical-align:top;">:</td><td><div>Rahul</div></td></tr><tr><td style="font-weight:bold;vertical-align:top;">SERVER_PORT</td><td style="vertical-align:top;">:</td><td><div>8000</div></td></tr><tr><td style="font-weight:bold;vertical-align:top;">SERVER_PROTOCOL</td><td style="vertical-align:top;">:</td><td><div>HTTP/1.1</div></td></tr><tr><td style="font-weight:bold;vertical-align:top;">SERVER_SOFTWARE</td><td style="vertical-align:top;">:</td><td><div>Rocket 1.2.6</div></td></tr><tr><td style="font-weight:bold;vertical-align:top;">app_folders</td><td style="vertical-align:top;">:</td><td><div>set([&#x27;C:\\\\Python27\\\\web2py\\\\applications\\\\pratilipi\\\\&#x27;, &#x27;C:\\\\Python27\\\\web2py\\\\applications\\\\admin\\\\&#x27;])</div></td></tr><tr><td style="font-weight:bold;vertical-align:top;">applications_parent</td><td style="vertical-align:top;">:</td><td><div>C:\\Python27\\web2py</div></td></tr><tr><td style="font-weight:bold;vertical-align:top;">cmd_args</td><td style="vertical-align:top;">:</td><td><div><table></table></div></td></tr><tr><td style="font-weight:bold;vertical-align:top;">cmd_options</td><td style="vertical-align:top;">:</td><td><div>&lt;Values at 0x355b288: {&#x27;verbose&#x27;: False, &#x27;ip&#x27;: &#x27;127.0.0.1&#x27;, &#x27;debuglevel&#x27;: 30, &#x27;with_scheduler&#x27;: False, &#x27;ips&#x27;: [&#x27;fe80::c072:5ea7:a8ca:8401%3&#x27;, &#x27;192.168.0.104&#x27;, &#x27;2001:0:9d38:6abd:2cec:efcb:95cc:f87&#x27;, &#x27;fe80::2cec:efcb:95cc:f87%9&#x27;], &#x27;shutdown_timeout&#x27;: 5, &#x27;taskbar&#x27;: False, &#x27;with_coverage&#x27;: False, &#x27;port&#x27;: 8000, &#x27;maxthreads&#x27;: None, &#x27;softcron&#x27;: False, &#x27;server_name&#x27;: &#x27;Rahul&#x27;, &#x27;bpython&#x27;: False, &#x27;nogui&#x27;: False, &#x27;pid_filename&#x27;: &#x27;httpserver.pid&#x27;, &#x27;extcron&#x27;: False, &#x27;runcron&#x27;: False, &#x27;run_system_tests&#x27;: False, &#x27;test&#x27;: None, &#x27;folder&#x27;: &#x27;C:\\\\Python27\\\\web2py&#x27;, &#x27;config&#x27;: &#x27;&#x27;, &#x27;minthreads&#x27;: None, &#x27;shell&#x27;: None, &#x27;run&#x27;: &#x27;&#x27;, &#x27;log_filename&#x27;: &#x27;httpserver.log&#x27;, &#x27;profiler_dir&#x27;: None, &#x27;args&#x27;: [&#x27;&#x27;], &#x27;socket_timeout&#x27;: 5, &#x27;ssl_ca_certificate&#x27;: None, &#x27;scheduler&#x27;: None, &#x27;interfaces&#x27;: None, &#x27;ssl_private_key&#x27;: &#x27;&#x27;, &#x27;scheduler_groups&#x27;: None, &#x27;password&#x27;: &#x27;&lt;ask&gt;&#x27;, &#x27;request_queue_size&#x27;: 5, &#x27;ssl_certificate&#x27;: &#x27;&#x27;, &#x27;cronjob&#x27;: False, &#x27;numthreads&#x27;: None, &#x27;quiet&#x27;: False, &#x27;import_models&#x27;: False, &#x27;timeout&#x27;: 10, &#x27;plain&#x27;: False, &#x27;nobanner&#x27;: False}&gt;</div></td></tr><tr><td style="font-weight:bold;vertical-align:top;">content_length</td><td style="vertical-align:top;">:</td><td><div>104</div></td></tr><tr><td style="font-weight:bold;vertical-align:top;">content_type</td><td style="vertical-align:top;">:</td><td><div>application/x-www-form-urlencoded; charset=UTF-8</div></td></tr><tr><td style="font-weight:bold;vertical-align:top;">db_sessions</td><td style="vertical-align:top;">:</td><td><div>set([])</div></td></tr><tr><td style="font-weight:bold;vertical-align:top;">debugging</td><td style="vertical-align:top;">:</td><td><div>False</div></td></tr><tr><td style="font-weight:bold;vertical-align:top;">gluon_parent</td><td style="vertical-align:top;">:</td><td><div>C:\\Python27\\web2py</div></td></tr><tr><td style="font-weight:bold;vertical-align:top;">http_accept</td><td style="vertical-align:top;">:</td><td><div>*/*</div></td></tr><tr><td style="font-weight:bold;vertical-align:top;">http_accept_encoding</td><td style="vertical-align:top;">:</td><td><div>gzip, deflate</div></td></tr><tr><td style="font-weight:bold;vertical-align:top;">http_accept_language</td><td style="vertical-align:top;">:</td><td><div>en-US,en;q=0.5</div></td></tr><tr><td style="font-weight:bold;vertical-align:top;">http_cache_control</td><td style="vertical-align:top;">:</td><td><div>no-cache</div></td></tr><tr><td style="font-weight:bold;vertical-align:top;">http_connection</td><td style="vertical-align:top;">:</td><td><div>keep-alive</div></td></tr><tr><td style="font-weight:bold;vertical-align:top;">http_content_length</td><td style="vertical-align:top;">:</td><td><div>104</div></td></tr><tr><td style="font-weight:bold;vertical-align:top;">http_content_type</td><td style="vertical-align:top;">:</td><td><div>application/x-www-form-urlencoded; charset=UTF-8</div></td></tr><tr><td style="font-weight:bold;vertical-align:top;">http_cookie</td><td style="vertical-align:top;">:</td><td><div>session_id_pratilipi=127.0.0.1-ce873af3-03ce-45ad-b2b9-23907b1c8c60; session_id_admin=127.0.0.1-85666d09-af9b-4787-b352-109505445ea1</div></td></tr><tr><td style="font-weight:bold;vertical-align:top;">http_host</td><td style="vertical-align:top;">:</td><td><div>127.0.0.1:8000</div></td></tr><tr><td style="font-weight:bold;vertical-align:top;">http_pragma</td><td style="vertical-align:top;">:</td><td><div>no-cache</div></td></tr><tr><td style="font-weight:bold;vertical-align:top;">http_referer</td><td style="vertical-align:top;">:</td><td><div>http://127.0.0.1:8000/admin/shell/index/pratilipi</div></td></tr><tr><td style="font-weight:bold;vertical-align:top;">http_user_agent</td><td style="vertical-align:top;">:</td><td><div>Mozilla/5.0 (Windows NT 6.3; WOW64; rv:30.0) Gecko/20100101 Firefox/30.0</div></td></tr><tr><td style="font-weight:bold;vertical-align:top;">http_x_requested_with</td><td style="vertical-align:top;">:</td><td><div>XMLHttpRequest</div></td></tr><tr><td style="font-weight:bold;vertical-align:top;">is_jython</td><td style="vertical-align:top;">:</td><td><div>False</div></td></tr><tr><td style="font-weight:bold;vertical-align:top;">is_pypy</td><td style="vertical-align:top;">:</td><td><div>False</div></td></tr><tr><td style="font-weight:bold;vertical-align:top;">is_source</td><td style="vertical-align:top;">:</td><td><div>True</div></td></tr><tr><td style="font-weight:bold;vertical-align:top;">local_hosts</td><td style="vertical-align:top;">:</td><td><div><table><tr><td><div>::ffff:127.0.0.1</div></td></tr><tr><td><div>::1</div></td></tr><tr><td><div>2001:0:9d38:6abd:2cec:efcb:95cc:f87</div></td></tr><tr><td><div>fe80::c072:5ea7:a8ca:8401%3</div></td></tr><tr><td><div>192.168.0.104</div></td></tr><tr><td><div>fe80::2cec:efcb:95cc:f87%9</div></td></tr><tr><td><div>127.0.0.1</div></td></tr><tr><td><div>Rahul</div></td></tr></table></div></td></tr><tr><td style="font-weight:bold;vertical-align:top;">path_info</td><td style="vertical-align:top;">:</td><td><div>/admin/shell/callback/pratilipi</div></td></tr><tr><td style="font-weight:bold;vertical-align:top;">query_string</td><td style="vertical-align:top;">:</td><td><div></div></td></tr><tr><td style="font-weight:bold;vertical-align:top;">remote_addr</td><td style="vertical-align:top;">:</td><td><div>127.0.0.1</div></td></tr><tr><td style="font-weight:bold;vertical-align:top;">remote_port</td><td style="vertical-align:top;">:</td><td><div>60265</div></td></tr><tr><td style="font-weight:bold;vertical-align:top;">request_method</td><td style="vertical-align:top;">:</td><td><div>POST</div></td></tr><tr><td style="font-weight:bold;vertical-align:top;">request_uri</td><td style="vertical-align:top;">:</td><td><div>/admin/shell/callback/pratilipi</div></td></tr><tr><td style="font-weight:bold;vertical-align:top;">script_name</td><td style="vertical-align:top;">:</td><td><div></div></td></tr><tr><td style="font-weight:bold;vertical-align:top;">server_name</td><td style="vertical-align:top;">:</td><td><div>Rahul</div></td></tr><tr><td style="font-weight:bold;vertical-align:top;">server_port</td><td style="vertical-align:top;">:</td><td><div>8000</div></td></tr><tr><td style="font-weight:bold;vertical-align:top;">server_protocol</td><td style="vertical-align:top;">:</td><td><div>HTTP/1.1</div></td></tr><tr><td style="font-weight:bold;vertical-align:top;">server_software</td><td style="vertical-align:top;">:</td><td><div>Rocket 1.2.6</div></td></tr><tr><td style="font-weight:bold;vertical-align:top;">web2py_original_uri</td><td style="vertical-align:top;">:</td><td><div>/admin/shell/callback/pratilipi</div></td></tr><tr><td style="font-weight:bold;vertical-align:top;">web2py_path</td><td style="vertical-align:top;">:</td><td><div>C:\\Python27\\web2py</div></td></tr><tr><td style="font-weight:bold;vertical-align:top;">web2py_version</td><td style="vertical-align:top;">:</td><td><div>2.9.5-stable+timestamp.2014.03.16.02.35.39</div></td></tr><tr><td style="font-weight:bold;vertical-align:top;">wsgi.errors</td><td style="vertical-align:top;">:</td><td><div>&lt;open file &#x27;&lt;stderr&gt;&#x27;, mode &#x27;w&#x27; at 0x0000000001D0B150&gt;</div></td></tr><tr><td style="font-weight:bold;vertical-align:top;">wsgi.file_wrapper</td><td style="vertical-align:top;">:</td><td><div>&lt;class wsgiref.util.FileWrapper at 0x000000000336F588&gt;</div></td></tr><tr><td style="font-weight:bold;vertical-align:top;">wsgi.input</td><td style="vertical-align:top;">:</td><td><div>&lt;socket._fileobject object at 0x00000000087F4C00&gt;</div></td></tr><tr><td style="font-weight:bold;vertical-align:top;">wsgi.multiprocess</td><td style="vertical-align:top;">:</td><td><div>False</div></td></tr><tr><td style="font-weight:bold;vertical-align:top;">wsgi.multithread</td><td style="vertical-align:top;">:</td><td><div>True</div></td></tr><tr><td style="font-weight:bold;vertical-align:top;">wsgi.run_once</td><td style="vertical-align:top;">:</td><td><div>False</div></td></tr><tr><td style="font-weight:bold;vertical-align:top;">wsgi.url_scheme</td><td style="vertical-align:top;">:</td><td><div>http</div></td></tr><tr><td style="font-weight:bold;vertical-align:top;">wsgi.version</td><td style="vertical-align:top;">:</td><td><div><table><tr><td><div>1</div></td></tr><tr><td><div>0</div></td></tr></table></div></td></tr><tr><td style="font-weight:bold;vertical-align:top;">wsgi_errors</td><td style="vertical-align:top;">:</td><td><div>&lt;open file &#x27;&lt;stderr&gt;&#x27;, mode &#x27;w&#x27; at 0x0000000001D0B150&gt;</div></td></tr><tr><td style="font-weight:bold;vertical-align:top;">wsgi_file_wrapper</td><td style="vertical-align:top;">:</td><td><div>&lt;class wsgiref.util.FileWrapper at 0x000000000336F588&gt;</div></td></tr><tr><td style="font-weight:bold;vertical-align:top;">wsgi_input</td><td style="vertical-align:top;">:</td><td><div>&lt;socket._fileobject object at 0x00000000087F4C00&gt;</div></td></tr><tr><td style="font-weight:bold;vertical-align:top;">wsgi_multiprocess</td><td style="vertical-align:top;">:</td><td><div>False</div></td></tr><tr><td style="font-weight:bold;vertical-align:top;">wsgi_multithread</td><td style="vertical-align:top;">:</td><td><div>True</div></td></tr><tr><td style="font-weight:bold;vertical-align:top;">wsgi_run_once</td><td style="vertical-align:top;">:</td><td><div>False</div></td></tr><tr><td style="font-weight:bold;vertical-align:top;">wsgi_url_scheme</td><td style="vertical-align:top;">:</td><td><div>http</div></td></tr><tr><td style="font-weight:bold;vertical-align:top;">wsgi_version</td><td style="vertical-align:top;">:</td><td><div><table><tr><td><div>1</div></td></tr><tr><td><div>0</div></td></tr></table></div></td></tr></table></div></td></tr><tr><td style="font-weight:bold;vertical-align:top;">extension</td><td style="vertical-align:top;">:</td><td><div>html</div></td></tr><tr><td style="font-weight:bold;vertical-align:top;">folder</td><td style="vertical-align:top;">:</td><td><div>C:\\Python27\\web2py\\applications\\admin\\</div></td></tr><tr><td style="font-weight:bold;vertical-align:top;">function</td><td style="vertical-align:top;">:</td><td><div>callback</div></td></tr><tr><td style="font-weight:bold;vertical-align:top;">global_settings</td><td style="vertical-align:top;">:</td><td><div><table><tr><td style="font-weight:bold;vertical-align:top;">app_folders</td><td style="vertical-align:top;">:</td><td><div>set([&#x27;C:\\\\Python27\\\\web2py\\\\applications\\\\pratilipi\\\\&#x27;, &#x27;C:\\\\Python27\\\\web2py\\\\applications\\\\admin\\\\&#x27;])</div></td></tr><tr><td style="font-weight:bold;vertical-align:top;">applications_parent</td><td style="vertical-align:top;">:</td><td><div>C:\\Python27\\web2py</div></td></tr><tr><td style="font-weight:bold;vertical-align:top;">cmd_args</td><td style="vertical-align:top;">:</td><td><div><table></table></div></td></tr><tr><td style="font-weight:bold;vertical-align:top;">cmd_options</td><td style="vertical-align:top;">:</td><td><div>&lt;Values at 0x355b288: {&#x27;verbose&#x27;: False, &#x27;ip&#x27;: &#x27;127.0.0.1&#x27;, &#x27;debuglevel&#x27;: 30, &#x27;with_scheduler&#x27;: False, &#x27;ips&#x27;: [&#x27;fe80::c072:5ea7:a8ca:8401%3&#x27;, &#x27;192.168.0.104&#x27;, &#x27;2001:0:9d38:6abd:2cec:efcb:95cc:f87&#x27;, &#x27;fe80::2cec:efcb:95cc:f87%9&#x27;], &#x27;shutdown_timeout&#x27;: 5, &#x27;taskbar&#x27;: False, &#x27;with_coverage&#x27;: False, &#x27;port&#x27;: 8000, &#x27;maxthreads&#x27;: None, &#x27;softcron&#x27;: False, &#x27;server_name&#x27;: &#x27;Rahul&#x27;, &#x27;bpython&#x27;: False, &#x27;nogui&#x27;: False, &#x27;pid_filename&#x27;: &#x27;httpserver.pid&#x27;, &#x27;extcron&#x27;: False, &#x27;runcron&#x27;: False, &#x27;run_system_tests&#x27;: False, &#x27;test&#x27;: None, &#x27;folder&#x27;: &#x27;C:\\\\Python27\\\\web2py&#x27;, &#x27;config&#x27;: &#x27;&#x27;, &#x27;minthreads&#x27;: None, &#x27;shell&#x27;: None, &#x27;run&#x27;: &#x27;&#x27;, &#x27;log_filename&#x27;: &#x27;httpserver.log&#x27;, &#x27;profiler_dir&#x27;: None, &#x27;args&#x27;: [&#x27;&#x27;], &#x27;socket_timeout&#x27;: 5, &#x27;ssl_ca_certificate&#x27;: None, &#x27;scheduler&#x27;: None, &#x27;interfaces&#x27;: None, &#x27;ssl_private_key&#x27;: &#x27;&#x27;, &#x27;scheduler_groups&#x27;: None, &#x27;password&#x27;: &#x27;&lt;ask&gt;&#x27;, &#x27;request_queue_size&#x27;: 5, &#x27;ssl_certificate&#x27;: &#x27;&#x27;, &#x27;cronjob&#x27;: False, &#x27;numthreads&#x27;: None, &#x27;quiet&#x27;: False, &#x27;import_models&#x27;: False, &#x27;timeout&#x27;: 10, &#x27;plain&#x27;: False, &#x27;nobanner&#x27;: False}&gt;</div></td></tr><tr><td style="font-weight:bold;vertical-align:top;">db_sessions</td><td style="vertical-align:top;">:</td><td><div>set([])</div></td></tr><tr><td style="font-weight:bold;vertical-align:top;">debugging</td><td style="vertical-align:top;">:</td><td><div>False</div></td></tr><tr><td style="font-weight:bold;vertical-align:top;">gluon_parent</td><td style="vertical-align:top;">:</td><td><div>C:\\Python27\\web2py</div></td></tr><tr><td style="font-weight:bold;vertical-align:top;">is_jython</td><td style="vertical-align:top;">:</td><td><div>False</div></td></tr><tr><td style="font-weight:bold;vertical-align:top;">is_pypy</td><td style="vertical-align:top;">:</td><td><div>False</div></td></tr><tr><td style="font-weight:bold;vertical-align:top;">is_source</td><td style="vertical-align:top;">:</td><td><div>True</div></td></tr><tr><td style="font-weight:bold;vertical-align:top;">local_hosts</td><td style="vertical-align:top;">:</td><td><div><table><tr><td><div>::ffff:127.0.0.1</div></td></tr><tr><td><div>::1</div></td></tr><tr><td><div>2001:0:9d38:6abd:2cec:efcb:95cc:f87</div></td></tr><tr><td><div>fe80::c072:5ea7:a8ca:8401%3</div></td></tr><tr><td><div>192.168.0.104</div></td></tr><tr><td><div>fe80::2cec:efcb:95cc:f87%9</div></td></tr><tr><td><div>127.0.0.1</div></td></tr><tr><td><div>Rahul</div></td></tr></table></div></td></tr><tr><td style="font-weight:bold;vertical-align:top;">web2py_version</td><td style="vertical-align:top;">:</td><td><div>2.9.5-stable+timestamp.2014.03.16.02.35.39</div></td></tr></table></div></td></tr><tr><td style="font-weight:bold;vertical-align:top;">is_https</td><td style="vertical-align:top;">:</td><td><div>False</div></td></tr><tr><td style="font-weight:bold;vertical-align:top;">is_local</td><td style="vertical-align:top;">:</td><td><div>True</div></td></tr><tr><td style="font-weight:bold;vertical-align:top;">is_restful</td><td style="vertical-align:top;">:</td><td><div>False</div></td></tr><tr><td style="font-weight:bold;vertical-align:top;">now</td><td style="vertical-align:top;">:</td><td><div>datetime.datetime(2014, 7, 14, 13, 49, 3, 166000)</div></td></tr><tr><td style="font-weight:bold;vertical-align:top;">url</td><td style="vertical-align:top;">:</td><td><div>/admin/shell/callback/pratilipi</div></td></tr><tr><td style="font-weight:bold;vertical-align:top;">utcnow</td><td style="vertical-align:top;">:</td><td><div>datetime.datetime(2014, 7, 14, 8, 19, 3, 166000)</div></td></tr><tr><td style="font-weight:bold;vertical-align:top;">uuid</td><td style="vertical-align:top;">:</td><td><div>admin/127.0.0.1.2014-07-14.13-49-03.361f05cd-a02f-4407-a083-e8ce433a4429</div></td></tr><tr><td style="font-weight:bold;vertical-align:top;">wsgi</td><td style="vertical-align:top;">:</td><td><div>&lt;gluon.main.LazyWSGI object at 0x00000000036F7828&gt;</div></td></tr></table></div>'
tRp58
sS'frames'
p59
(lp60
(dp61
S'file'
p62
S'C:\\Python27\\web2py\\gluon\\restricted.py'
p63
sS'dump'
p64
(dp65
S'environment'
p66
S"{'A': <class 'gluon.html.A'>, 'ANY_OF': <class 'gluon.validators.ANY_OF'>, 'A_button': <function A_button>, 'B': <class 'gluon.html.B'>, 'BEAUTIFY': <class 'gluon.html.BEAUTIFY'>, 'BODY': <class 'gluon.html.BODY'>, 'BR': <class 'gluon.html.BR'>, 'BUTTON': <class 'gluon.html.BUTTON'>, 'CAT': <class 'gluon.html.CAT'>, 'CENTER': <class 'gluon.html.CENTER'>, ...}"
p67
sS'ccode'
p68
S'<code object <module> at 000000000937D2B0, file ...applications\\admin\\controllers/shell.py", line 1>'
p69
ssS'lnum'
p70
I220
sS'lines'
p71
(dp72
I224
S'        # do not encapsulate (obfuscate) the original RestrictedError'
p73
sI215
S'    try:'
p74
sI216
S'        if isinstance(code, types.CodeType):'
p75
sI217
S'            ccode = code'
p76
sI218
S'        else:'
p77
sI219
S'            ccode = compile2(code, layer)'
p78
sI220
S'        exec ccode in environment'
p79
sI221
S'    except HTTP:'
p80
sI222
S'        raise'
p81
sI223
S'    except RestrictedError:'
p82
ssS'call'
p83
S'(code="import sys\\nimport cStringIO\\nimport gluon.contrib...done\'\\n\\nresponse._vars=response._caller(callback)\\n", environment={\'A\': <class \'gluon.html.A\'>, \'ANY_OF\': <class \'gluon.validators.ANY_OF\'>, \'A_button\': <function A_button>, \'B\': <class \'gluon.html.B\'>, \'BEAUTIFY\': <class \'gluon.html.BEAUTIFY\'>, \'BODY\': <class \'gluon.html.BODY\'>, \'BR\': <class \'gluon.html.BR\'>, \'BUTTON\': <class \'gluon.html.BUTTON\'>, \'CAT\': <class \'gluon.html.CAT\'>, \'CENTER\': <class \'gluon.html.CENTER\'>, ...}, layer=r\'C:\\Python27\\web2py\\applications\\admin\\controllers/shell.py\')'
p84
sS'func'
p85
S'restricted'
p86
sa(dp87
g62
S'C:\\Python27\\web2py\\applications\\admin\\controllers\\shell.py'
p88
sg64
(dp89
sg70
I53
sg71
(dp90
I42
S'    #output = PRE(output)'
p91
sI43
S"    #return TABLE(TR('In[%i]:'%k,PRE(command)),TR('Out[%i]:'%k,output))"
p92
sI44
S"    return cgi.escape('In [%i] : %s%s\\n' % (k + 1, command, output))"
p93
sI45
S''
sI46
S''
sI47
S'def reset():'
p94
sI48
S"    app = request.args(0) or 'admin'"
p95
sI49
S"    session['commands:' + app] = []"
p96
sI50
S"    session['history:' + app] = gluon.contrib.shell.History()"
p97
sI51
S"    return 'done'"
p98
ssg83
S'()'
p99
sg85
S'<module>'
p100
sa(dp101
g62
S'C:\\Python27\\web2py\\gluon\\globals.py'
p102
sg64
(dp103
S'self'
p104
S'undefined'
p105
sS'f'
S'<function callback>'
p106
ssg70
I385
sg71
(dp107
I384
S'        self._vars = None'
p108
sI385
S'        self._caller = lambda f: f()'
p109
sI386
S'        self._view_environment = None'
p110
sI387
S'        self._custom_commit = None'
p111
sI388
S'        self._custom_rollback = None'
p112
sI389
S''
sI380
S'        self.menu = []             # used by the default view layout'
p113
sI381
S'        self.files = []            # used by web2py_ajax.html'
p114
sI382
S'        self.generic_patterns = []  # patterns to allow generic views'
p115
sI383
S"        self.delimiters = ('{{', '}}')"
p116
ssg83
S'(f=<function callback>)'
p117
sg85
S'<lambda>'
p118
sa(dp119
g62
S'C:\\Python27\\web2py\\applications\\admin\\controllers\\shell.py'
p120
sg64
(dp121
S'environ'
p122
S"{'A': <class 'gluon.html.A'>, 'ANY_OF': <class 'gluon.validators.ANY_OF'>, 'Auth': <class 'gluon.tools.Auth'>, 'B': <class 'gluon.html.B'>, 'BEAUTIFY': <class 'gluon.html.BEAUTIFY'>, 'BODY': <class 'gluon.html.BODY'>, 'BR': <class 'gluon.html.BR'>, 'BUTTON': <class 'gluon.html.BUTTON'>, 'CAT': <class 'gluon.html.CAT'>, 'CENTER': <class 'gluon.html.CENTER'>, ...}"
p123
sS'gluon.contrib.shell.run'
p124
S'<function run>'
p125
sS'gluon.contrib'
p126
S"<module 'gluon.contrib' from 'C:\\Python27\\web2py\\gluon\\contrib\\__init__.pyc'>"
p127
sS'gluon.contrib.shell'
p128
S"<module 'gluon.contrib.shell' from 'C:\\Python27\\web2py\\gluon\\contrib\\shell.pyc'>"
p129
sS'command'
p130
S'"row = db(db.subscribers.email == \'genirahul@gmial.com\').select(db.subscribers.name)\\n"'
p131
sS'global gluon'
p132
S"<module 'gluon' from 'C:\\Python27\\web2py\\gluon\\__init__.pyc'>"
p133
sS'output'
p134
g105
sS'history'
p135
S'<gluon.contrib.shell.History instance>'
p136
ssg70
I40
sg71
(dp137
I35
S"            command = session['commands:' + app][int(command[1:])]"
p138
sI36
S'        except ValueError:'
p139
sI37
S"            return ''"
p140
sI38
S"    session['commands:' + app].append(command)"
p141
sI39
S'    environ = env(app, True, extra_request=dict(is_https=request.is_https))'
p142
sI40
S'    output = gluon.contrib.shell.run(history, command, environ)'
p143
sI41
S"    k = len(session['commands:' + app]) - 1"
p144
sI42
S'    #output = PRE(output)'
p145
sI43
S"    #return TABLE(TR('In[%i]:'%k,PRE(command)),TR('Out[%i]:'%k,output))"
p146
sI44
S"    return cgi.escape('In [%i] : %s%s\\n' % (k + 1, command, output))"
p147
ssg83
S'()'
p148
sg85
S'callback'
p149
sa(dp150
g62
S'C:\\Python27\\web2py\\gluon\\contrib\\shell.py'
p151
sg64
(dp152
S'code'
p153
S"'row[0].name\\n\\n\\n'"
p154
sS'statement_module.__dict__'
p155
S"{'A': <class 'gluon.html.A'>, 'ANY_OF': <class 'gluon.validators.ANY_OF'>, 'Auth': <class 'gluon.tools.Auth'>, 'B': <class 'gluon.html.B'>, 'BEAUTIFY': <class 'gluon.html.BEAUTIFY'>, 'BODY': <class 'gluon.html.BODY'>, 'BR': <class 'gluon.html.BR'>, 'BUTTON': <class 'gluon.html.BUTTON'>, 'CAT': <class 'gluon.html.CAT'>, 'CENTER': <class 'gluon.html.CENTER'>, ...}"
p156
sS'statement_module'
p157
S"<module '__main__' from 'applications\\pratilipi\\models\\menu.py'>"
p158
ssg70
I214
sg71
(dp159
I209
S"        statement_module.__name__ = '__main__'"
p160
sI210
S'        statement_module.__dict__.update(env)'
p161
sI211
S''
sI212
S'        # re-evaluate the unpicklables'
p162
sI213
S'        for code in history.unpicklables:'
p163
sI214
S'            exec code in statement_module.__dict__'
p164
sI215
S''
sI216
S'        # re-initialize the globals'
p165
sI217
S'        for name, val in history.globals_dict().items():'
p166
sI218
S'            try:'
p167
ssg83
S'(history=<gluon.contrib.shell.History instance>, statement="row = db(db.subscribers.email == \'genirahul@gmial.com\').select(db.subscribers.name)\\n\\n\\n", env={\'A\': <class \'gluon.html.A\'>, \'ANY_OF\': <class \'gluon.validators.ANY_OF\'>, \'Auth\': <class \'gluon.tools.Auth\'>, \'B\': <class \'gluon.html.B\'>, \'BEAUTIFY\': <class \'gluon.html.BEAUTIFY\'>, \'BODY\': <class \'gluon.html.BODY\'>, \'BR\': <class \'gluon.html.BR\'>, \'BUTTON\': <class \'gluon.html.BUTTON\'>, \'CAT\': <class \'gluon.html.CAT\'>, \'CENTER\': <class \'gluon.html.CENTER\'>, ...})'
p168
sg85
S'run'
p169
sa(dp170
g62
S'C:\\Python27\\web2py\\<string>'
p171
sg64
(dp172
sg70
I1
sg71
(dp173
sg83
S'()'
p174
sg85
g100
sasS'pyver'
p175
S'Python 2.7.7: C:\\Python27\\python.exe (prefix: C:\\Python27)'
p176
sS'session'
p177
g57
(S's\x0c\x06\x00\x00<div><table><tr><td style="font-weight:bold;vertical-align:top;">authorized</td><td style="vertical-align:top;">:</td><td><div>True</div></td></tr><tr><td style="font-weight:bold;vertical-align:top;">check_version</td><td style="vertical-align:top;">:</td><td><div>False</div></td></tr><tr><td style="font-weight:bold;vertical-align:top;">commands:pratilipi</td><td style="vertical-align:top;">:</td><td><div><table><tr><td><div>row = db(db.subscribers.email == ;\n</div></td></tr><tr><td><div>row = db(db.subscribers.email == &#x27;genirahul@gmial.com&#x27;).select(db.subscribers.name)\n</div></td></tr></table></div></td></tr><tr><td style="font-weight:bold;vertical-align:top;">flash</td><td style="vertical-align:top;">:</td><td><div>None</div></td></tr><tr><td style="font-weight:bold;vertical-align:top;">history:pratilipi</td><td style="vertical-align:top;">:</td><td><div>&lt;gluon.contrib.shell.History instance at 0x0000000009473348&gt;</div></td></tr><tr><td style="font-weight:bold;vertical-align:top;">is_mobile</td><td style="vertical-align:top;">:</td><td><div>auto</div></td></tr><tr><td style="font-weight:bold;vertical-align:top;">last_time</td><td style="vertical-align:top;">:</td><td><div>1405325943.198</div></td></tr><tr><td style="font-weight:bold;vertical-align:top;">pam_user</td><td style="vertical-align:top;">:</td><td><div>None</div></td></tr><tr><td style="font-weight:bold;vertical-align:top;">token</td><td style="vertical-align:top;">:</td><td><div>96551556-e38c-4d4f-b9c5-b3b7c836c822</div></td></tr></table></div>'
tRp178
sS'etype'
p179
S"<type 'exceptions.NameError'>"
p180
sS'date'
p181
S'Mon Jul 14 13:49:03 2014'
p182
sS'response'
p183
g57
(S's\x0f\x1f\x00\x00<div><table><tr><td style="font-weight:bold;vertical-align:top;">body</td><td style="vertical-align:top;">:</td><td><div>&lt;cStringIO.StringO object at 0x0000000008F62420&gt;</div></td></tr><tr><td style="font-weight:bold;vertical-align:top;">cookies</td><td style="vertical-align:top;">:</td><td><div><table><tr><td style="font-weight:bold;vertical-align:top;">session_id_admin</td><td style="vertical-align:top;">:</td><td><div>127.0.0.1-85666d09-af9b-4787-b352-109505445ea1<table><tr><td style="font-weight:bold;vertical-align:top;">comment</td><td style="vertical-align:top;">:</td><td><div></div></td></tr><tr><td style="font-weight:bold;vertical-align:top;">domain</td><td style="vertical-align:top;">:</td><td><div></div></td></tr><tr><td style="font-weight:bold;vertical-align:top;">expires</td><td style="vertical-align:top;">:</td><td><div></div></td></tr><tr><td style="font-weight:bold;vertical-align:top;">httponly</td><td style="vertical-align:top;">:</td><td><div></div></td></tr><tr><td style="font-weight:bold;vertical-align:top;">max-age</td><td style="vertical-align:top;">:</td><td><div></div></td></tr><tr><td style="font-weight:bold;vertical-align:top;">path</td><td style="vertical-align:top;">:</td><td><div>/</div></td></tr><tr><td style="font-weight:bold;vertical-align:top;">secure</td><td style="vertical-align:top;">:</td><td><div></div></td></tr><tr><td style="font-weight:bold;vertical-align:top;">version</td><td style="vertical-align:top;">:</td><td><div></div></td></tr></table></div></td></tr></table></div></td></tr><tr><td style="font-weight:bold;vertical-align:top;">delimiters</td><td style="vertical-align:top;">:</td><td><div><table><tr><td><div>{{</div></td></tr><tr><td><div>}}</div></td></tr></table></div></td></tr><tr><td style="font-weight:bold;vertical-align:top;">files</td><td style="vertical-align:top;">:</td><td><div><table><tr><td><div>/admin/static/plugin_multiselect/jquery.multi-select.js</div></td></tr><tr><td><div>/admin/static/plugin_multiselect/multi-select.css</div></td></tr><tr><td><div>/admin/static/plugin_multiselect/start.js</div></td></tr><tr><td><div>/admin/static/plugin_statebutton/js/bootstrap-switch.js</div></td></tr><tr><td><div>/admin/static/plugin_statebutton/css/bootstrap-switch.css</div></td></tr></table></div></td></tr><tr><td style="font-weight:bold;vertical-align:top;">flash</td><td style="vertical-align:top;">:</td><td><div></div></td></tr><tr><td style="font-weight:bold;vertical-align:top;">generic_patterns</td><td style="vertical-align:top;">:</td><td><div><table></table></div></td></tr><tr><td style="font-weight:bold;vertical-align:top;">headers</td><td style="vertical-align:top;">:</td><td><div><table><tr><td style="font-weight:bold;vertical-align:top;">X-Powered-By</td><td style="vertical-align:top;">:</td><td><div>web2py</div></td></tr></table></div></td></tr><tr><td style="font-weight:bold;vertical-align:top;">menu</td><td style="vertical-align:top;">:</td><td><div><table><tr><td><div><table><tr><td><div>Site</div></td></tr><tr><td><div>False</div></td></tr><tr><td><div>/admin/site</div></td></tr></table></div></td></tr><tr><td><div><table><tr><td><div>Edit</div></td></tr><tr><td><div>False</div></td></tr><tr><td><div>/admin/design/pratilipi</div></td></tr></table></div></td></tr><tr><td><div><table><tr><td><div>About</div></td></tr><tr><td><div>False</div></td></tr><tr><td><div>/admin/about/pratilipi</div></td></tr></table></div></td></tr><tr><td><div><table><tr><td><div>Errors</div></td></tr><tr><td><div>False</div></td></tr><tr><td><div>/admin/errors/pratilipi</div></td></tr></table></div></td></tr><tr><td><div><table><tr><td><div>Versioning</div></td></tr><tr><td><div>False</div></td></tr><tr><td><div>/admin/mercurial/commit/pratilipi</div></td></tr></table></div></td></tr><tr><td><div><table><tr><td><div>Help</div></td></tr><tr><td><div>False</div></td></tr><tr><td><div>http://web2py.com/examples/default/documentation</div></td></tr></table></div></td></tr><tr><td><div><table><tr><td><div>Logout</div></td></tr><tr><td><div>False</div></td></tr><tr><td><div>/admin/logout</div></td></tr></table></div></td></tr><tr><td><div><table><tr><td><div>Debug</div></td></tr><tr><td><div>False</div></td></tr><tr><td><div>/admin/debug/interact</div></td></tr></table></div></td></tr></table></div></td></tr><tr><td style="font-weight:bold;vertical-align:top;">meta</td><td style="vertical-align:top;">:</td><td><div><table></table></div></td></tr><tr><td style="font-weight:bold;vertical-align:top;">models_to_run</td><td style="vertical-align:top;">:</td><td><div><table><tr><td><div>^\\w+\\.py$</div></td></tr><tr><td><div>^shell/\\w+\\.py$</div></td></tr><tr><td><div>^shell/callback/\\w+\\.py$</div></td></tr></table></div></td></tr><tr><td style="font-weight:bold;vertical-align:top;">postprocessing</td><td style="vertical-align:top;">:</td><td><div><table></table></div></td></tr><tr><td style="font-weight:bold;vertical-align:top;">session_client</td><td style="vertical-align:top;">:</td><td><div>127.0.0.1</div></td></tr><tr><td style="font-weight:bold;vertical-align:top;">session_cookie_compression_level</td><td style="vertical-align:top;">:</td><td><div>None</div></td></tr><tr><td style="font-weight:bold;vertical-align:top;">session_cookie_expires</td><td style="vertical-align:top;">:</td><td><div>None</div></td></tr><tr><td style="font-weight:bold;vertical-align:top;">session_cookie_key</td><td style="vertical-align:top;">:</td><td><div>None</div></td></tr><tr><td style="font-weight:bold;vertical-align:top;">session_data_name</td><td style="vertical-align:top;">:</td><td><div>session_data_admin</div></td></tr><tr><td style="font-weight:bold;vertical-align:top;">session_file</td><td style="vertical-align:top;">:</td><td><div>&lt;open file &#x27;C:\\\\Python27\\\\web2py\\\\applications\\\\admin\\\\sessions\\\\127.0.0.1-85666d09-af9b-4787-b352-109505445ea1&#x27;, mode &#x27;rb+&#x27; at 0x0000000008C3A300&gt;</div></td></tr><tr><td style="font-weight:bold;vertical-align:top;">session_filename</td><td style="vertical-align:top;">:</td><td><div>C:\\Python27\\web2py\\applications\\admin\\sessions\\127.0.0.1-85666d09-af9b-4787-b352-109505445ea1</div></td></tr><tr><td style="font-weight:bold;vertical-align:top;">session_hash</td><td style="vertical-align:top;">:</td><td><div>e45dd8c9799446f475cecb94712ed1af</div></td></tr><tr><td style="font-weight:bold;vertical-align:top;">session_id</td><td style="vertical-align:top;">:</td><td><div>127.0.0.1-85666d09-af9b-4787-b352-109505445ea1</div></td></tr><tr><td style="font-weight:bold;vertical-align:top;">session_id_name</td><td style="vertical-align:top;">:</td><td><div>session_id_admin</div></td></tr><tr><td style="font-weight:bold;vertical-align:top;">session_locked</td><td style="vertical-align:top;">:</td><td><div>True</div></td></tr><tr><td style="font-weight:bold;vertical-align:top;">session_masterapp</td><td style="vertical-align:top;">:</td><td><div>admin</div></td></tr><tr><td style="font-weight:bold;vertical-align:top;">session_new</td><td style="vertical-align:top;">:</td><td><div>False</div></td></tr><tr><td style="font-weight:bold;vertical-align:top;">session_storage_type</td><td style="vertical-align:top;">:</td><td><div>file</div></td></tr><tr><td style="font-weight:bold;vertical-align:top;">static_version</td><td style="vertical-align:top;">:</td><td><div>2.9.5</div></td></tr><tr><td style="font-weight:bold;vertical-align:top;">status</td><td style="vertical-align:top;">:</td><td><div>200</div></td></tr><tr><td style="font-weight:bold;vertical-align:top;">subtitle</td><td style="vertical-align:top;">:</td><td><div>admin</div></td></tr><tr><td style="font-weight:bold;vertical-align:top;">title</td><td style="vertical-align:top;">:</td><td><div>callback pratilipi</div></td></tr><tr><td style="font-weight:bold;vertical-align:top;">view</td><td style="vertical-align:top;">:</td><td><div>shell/callback.html</div></td></tr></table></div>'
tRp184
sS'locals'
p185
(dp186
S'Service'
p187
S"<class 'gluon.tools.Service'>"
p188
sS'OBJECT'
p189
S"<class 'gluon.html.OBJECT'>"
p190
sS'SQLDB'
p191
S"<class 'gluon.dal.DAL'>"
p192
sg177
S'<Storage {}>'
p193
sS'LINK'
p194
S"<class 'gluon.html.LINK'>"
p195
sS'BR'
p196
S"<class 'gluon.html.BR'>"
p197
sS'local_import'
p198
S'<function <lambda>>'
p199
sS'OPTGROUP'
p200
S"<class 'gluon.html.OPTGROUP'>"
p201
sS'__package__'
p202
S'None'
p203
sS'PRE'
p204
S"<class 'gluon.html.PRE'>"
p205
sS'IS_INT_IN_RANGE'
p206
S"<class 'gluon.validators.IS_INT_IN_RANGE'>"
p207
sS'IS_LOWER'
p208
S"<class 'gluon.validators.IS_LOWER'>"
p209
sS'IS_STRONG'
p210
S"<class 'gluon.validators.IS_STRONG'>"
p211
sS'cache'
p212
S'<gluon.cache.Cache object>'
p213
sS'IS_IN_DB'
p214
S"<class 'gluon.validators.IS_IN_DB'>"
p215
sS'TAG'
p216
S'<gluon.html.__TAG__ object>'
p217
sS'SQLField'
p218
S"<class 'gluon.dal.Field'>"
p219
sS'mail'
p220
S'<gluon.tools.Mail object>'
p221
sS'BODY'
p222
S"<class 'gluon.html.BODY'>"
p223
sS'IS_DATE_IN_RANGE'
p224
S"<class 'gluon.validators.IS_DATE_IN_RANGE'>"
p225
sS'IFRAME'
p226
S"<class 'gluon.html.IFRAME'>"
p227
sS'URL'
p228
S'<function URL>'
p229
sS'__file__'
p230
S"r'applications\\pratilipi\\models\\menu.py'"
p231
sS'db'
p232
S'<DAL uri="sqlite://storage.sqlite">'
p233
sS'auth'
p234
S'<gluon.tools.Auth object>'
p235
sS'P'
S"<class 'gluon.html.P'>"
p236
sS'TFOOT'
p237
S"<class 'gluon.html.TFOOT'>"
p238
sS'XHTML'
p239
S"<class 'gluon.html.XHTML'>"
p240
sS'ON'
p241
S'True'
p242
sS'OL'
p243
S"<class 'gluon.html.OL'>"
p244
sS'TEXTAREA'
p245
S"<class 'gluon.html.TEXTAREA'>"
p246
sS'MENU'
p247
S"<class 'gluon.html.MENU'>"
p248
sS'IS_IMAGE'
p249
S"<class 'gluon.validators.IS_IMAGE'>"
p250
sS'EM'
p251
S"<class 'gluon.html.EM'>"
p252
sS'CODE'
p253
S"<class 'gluon.html.CODE'>"
p254
sS'HTTP'
p255
S"<class 'gluon.http.HTTP'>"
p256
sS'HR'
p257
S"<class 'gluon.html.HR'>"
p258
sS'IS_DATETIME'
p259
S"<class 'gluon.validators.IS_DATETIME'>"
p260
sS'STYLE'
p261
S"<class 'gluon.html.STYLE'>"
p262
sS'LABEL'
p263
S"<class 'gluon.html.LABEL'>"
p264
sS'CLEANUP'
p265
S"<class 'gluon.validators.CLEANUP'>"
p266
sS'plugins'
p267
S'<gluon.tools.PluginManager object>'
p268
sS'SELECT'
p269
S"<class 'gluon.html.SELECT'>"
p270
sS'use_janrain'
p271
S'<function use_janrain>'
p272
sS'CENTER'
p273
S"<class 'gluon.html.CENTER'>"
p274
sS'prettydate'
p275
S'<function prettydate>'
p276
sS'Crud'
p277
S"<class 'gluon.tools.Crud'>"
p278
sS'Auth'
p279
S"<class 'gluon.tools.Auth'>"
p280
sS'DEVELOPMENT_MENU'
p281
g242
sS'IS_EQUAL_TO'
p282
S"<class 'gluon.validators.IS_EQUAL_TO'>"
p283
sS'HTML'
p284
S"<class 'gluon.html.HTML'>"
p285
sS'SQLFORM'
p286
S"<class 'gluon.sqlhtml.SQLFORM'>"
p287
sS'LOAD'
p288
S'<function LOAD>'
p289
sS'redirect'
p290
S'<function redirect>'
p291
sS'FIELDSET'
p292
S"<class 'gluon.html.FIELDSET'>"
p293
sS'__builtins__'
p294
S"{'ArithmeticError': <type 'exceptions.ArithmeticError'>, 'AssertionError': <type 'exceptions.AssertionError'>, 'AttributeError': <type 'exceptions.AttributeError'>, 'BaseException': <type 'exceptions.BaseException'>, 'BufferError': <type 'exceptions.BufferError'>, 'BytesWarning': <type 'exceptions.BytesWarning'>, 'DeprecationWarning': <type 'exceptions.DeprecationWarning'>, 'EOFError': <type 'exceptions.EOFError'>, 'Ellipsis': Ellipsis, 'EnvironmentError': <type 'exceptions.EnvironmentError'>, ...}"
p295
sS'embed64'
p296
S'<function embed64>'
p297
sS'IS_LIST_OF'
p298
S"<class 'gluon.validators.IS_LIST_OF'>"
p299
sS'INPUT'
p300
S"<class 'gluon.html.INPUT'>"
p301
sS'EMBED'
p302
S"<class 'gluon.html.EMBED'>"
p303
sS'_'
S'<function _>'
p304
sS'H2'
p305
S"<class 'gluon.html.H2'>"
p306
sS'H3'
p307
S"<class 'gluon.html.H3'>"
p308
sS'BUTTON'
p309
S"<class 'gluon.html.BUTTON'>"
p310
sS'H1'
p311
S"<class 'gluon.html.H1'>"
p312
sS'H6'
p313
S"<class 'gluon.html.H6'>"
p314
sS'H4'
p315
S"<class 'gluon.html.H4'>"
p316
sS'H5'
p317
S"<class 'gluon.html.H5'>"
p318
sS'UL'
p319
S"<class 'gluon.html.UL'>"
p320
sS'IS_UPPER'
p321
S"<class 'gluon.validators.IS_UPPER'>"
p322
sS'xmlescape'
p323
S'<function xmlescape>'
p324
sS'IS_TIME'
p325
S"<class 'gluon.validators.IS_TIME'>"
p326
sS'OPTION'
p327
S"<class 'gluon.html.OPTION'>"
p328
sS'TITLE'
p329
S"<class 'gluon.html.TITLE'>"
p330
sS'CRYPT'
p331
S"<class 'gluon.validators.CRYPT'>"
p332
sS'IS_EMPTY_OR'
p333
S"<class 'gluon.validators.IS_EMPTY_OR'>"
p334
sS'MARKMIN'
p335
S"<class 'gluon.html.MARKMIN'>"
p336
sS'__name__'
p337
S"'__main__'"
p338
sS'STRONG'
p339
S"<class 'gluon.html.STRONG'>"
p340
sS'COL'
p341
S"<class 'gluon.html.COL'>"
p342
sS'service'
p343
S'<gluon.tools.Service object>'
p344
sS'SCRIPT'
p345
S"<class 'gluon.html.SCRIPT'>"
p346
sS'TABLE'
p347
S"<class 'gluon.html.TABLE'>"
p348
sg48
S'None'
p349
sS'IS_LENGTH'
p350
S"<class 'gluon.validators.IS_LENGTH'>"
p351
sS'IS_IPV6'
p352
S"<class 'gluon.validators.IS_IPV6'>"
p353
sS'XML'
p354
S"<class 'gluon.html.XML'>"
p355
sS'B'
S"<class 'gluon.html.B'>"
p356
sS'IMG'
p357
S"<class 'gluon.html.IMG'>"
p358
sS'SQLTABLE'
p359
S"<class 'gluon.sqlhtml.SQLTABLE'>"
p360
sS'IS_MATCH'
p361
S"<class 'gluon.validators.IS_MATCH'>"
p362
sS'IS_ALPHANUMERIC'
p363
S"<class 'gluon.validators.IS_ALPHANUMERIC'>"
p364
sS'SPAN'
p365
S"<class 'gluon.html.SPAN'>"
p366
sS'IS_JSON'
p367
S"<class 'gluon.validators.IS_JSON'>"
p368
sS'IS_IPADDRESS'
p369
S"<class 'gluon.validators.IS_IPADDRESS'>"
p370
sS'IS_SLUG'
p371
S"<class 'gluon.validators.IS_SLUG'>"
p372
sS'IS_IPV4'
p373
S"<class 'gluon.validators.IS_IPV4'>"
p374
sS'BEAUTIFY'
p375
S"<class 'gluon.html.BEAUTIFY'>"
p376
sS'META'
p377
S"<class 'gluon.html.META'>"
p378
sS'IS_DATE'
p379
S"<class 'gluon.validators.IS_DATE'>"
p380
sS'IS_EMAIL'
p381
S"<class 'gluon.validators.IS_EMAIL'>"
p382
sS'IS_NOT_EMPTY'
p383
S"<class 'gluon.validators.IS_NOT_EMPTY'>"
p384
sS'IS_FLOAT_IN_RANGE'
p385
S"<class 'gluon.validators.IS_FLOAT_IN_RANGE'>"
p386
sS'TBODY'
p387
S"<class 'gluon.html.TBODY'>"
p388
sS'CAT'
p389
S"<class 'gluon.html.CAT'>"
p390
sS'Field'
p391
S"<class 'gluon.dal.Field'>"
p392
sS'IS_LIST_OF_EMAILS'
p393
S"<class 'gluon.validators.IS_LIST_OF_EMAILS'>"
p394
sS'DIV'
p395
S"<class 'gluon.html.DIV'>"
p396
sS'LEGEND'
p397
S"<class 'gluon.html.LEGEND'>"
p398
sS'COLGROUP'
p399
S"<class 'gluon.html.COLGROUP'>"
p400
sS'DAL'
p401
S"<class 'gluon.dal.DAL'>"
p402
sS'TT'
p403
S"<class 'gluon.html.TT'>"
p404
sS'TR'
p405
S"<class 'gluon.html.TR'>"
p406
sS'LI'
p407
S"<class 'gluon.html.LI'>"
p408
sS'TH'
p409
S"<class 'gluon.html.TH'>"
p410
sS'TD'
p411
S"<class 'gluon.html.TD'>"
p412
sS'PluginManager'
p413
S"<class 'gluon.tools.PluginManager'>"
p414
sS'IS_URL'
p415
S"<class 'gluon.validators.IS_URL'>"
p416
sS'A'
S"<class 'gluon.html.A'>"
p417
sS'HEAD'
p418
S"<class 'gluon.html.HEAD'>"
p419
sS'IS_DATETIME_IN_RANGE'
p420
S"<class 'gluon.validators.IS_DATETIME_IN_RANGE'>"
p421
sS'FORM'
p422
S"<class 'gluon.html.FORM'>"
p423
sS'I'
S"<class 'gluon.html.I'>"
p424
sS'crud'
p425
S'<gluon.tools.Crud object>'
p426
sS'IS_NOT_IN_DB'
p427
S"<class 'gluon.validators.IS_NOT_IN_DB'>"
p428
sg183
S"<Storage {'body': <cStringIO.StringO object at 0...000000000937F278>, 'view': 'default/index.html'}>"
p429
sS'THEAD'
p430
S"<class 'gluon.html.THEAD'>"
p431
sS'ANY_OF'
p432
S"<class 'gluon.validators.ANY_OF'>"
p433
sS'IS_NULL_OR'
p434
S"<class 'gluon.validators.IS_EMPTY_OR'>"
p435
sg56
S"<Storage {'_vars': <Storage {}>, 'function': 'in...imestamp.2014.03.16.02.35.39', 'cmd_args': []}>}>"
p436
sS'IS_EXPR'
p437
S"<class 'gluon.validators.IS_EXPR'>"
p438
sS'T'
S'<gluon.languages.translator object>'
p439
sS'IS_IN_SET'
p440
S"<class 'gluon.validators.IS_IN_SET'>"
p441
sS'IS_UPLOAD_FILENAME'
p442
S"<class 'gluon.validators.IS_UPLOAD_FILENAME'>"
p443
sS'IS_DECIMAL_IN_RANGE'
p444
S"<class 'gluon.validators.IS_DECIMAL_IN_RANGE'>"
p445
sssS'traceback'
p446
S'Traceback (most recent call last):\n  File "C:\\Python27\\web2py\\gluon\\restricted.py", line 220, in restricted\n    exec ccode in environment\n  File "C:\\Python27\\web2py\\applications\\admin\\controllers/shell.py", line 53, in <module>\n  File "C:\\Python27\\web2py\\gluon\\globals.py", line 385, in <lambda>\n    self._caller = lambda f: f()\n  File "C:\\Python27\\web2py\\applications\\admin\\controllers/shell.py", line 40, in callback\n    output = gluon.contrib.shell.run(history, command, environ)\n  File "C:\\Python27\\web2py\\gluon\\contrib\\shell.py", line 214, in run\n    exec code in statement_module.__dict__\n  File "<string>", line 1, in <module>\nNameError: name \'row\' is not defined\n'
p447
s.