(dp1
S'output'
p2
S"<type 'exceptions.UnicodeDecodeError'> 'utf8' codec can't decode byte 0xb0 in position 14: invalid start byte"
p3
sS'layer'
p4
S'C:\\Python27\\web2py\\applications\\admin\\controllers/default.py'
p5
sS'code'
p6
S'# coding: utf8\n\nEXPERIMENTAL_STUFF = True\nMAXNFILES = 1000\n\nif EXPERIMENTAL_STUFF:\n    if is_mobile:\n        response.view = response.view.replace(\'default/\', \'default.mobile/\')\n        response.menu = []\n\nimport re\nfrom gluon.admin import *\nfrom gluon.fileutils import abspath, read_file, write_file\nfrom gluon.utils import web2py_uuid\nfrom gluon.tools import Config\nfrom gluon.compileapp import find_exposed_functions\nfrom glob import glob\nimport shutil\nimport platform\n\ntry:\n    import git\n    if git.__version__ < \'0.3.1\':\n        raise ImportError("Your version of git is %s. Upgrade to 0.3.1 or better." % git.__version__)\n    have_git = True\nexcept ImportError, e:\n    have_git = False\n    GIT_MISSING = \'Requires gitpython module, but not installed or incompatible version: %s\' % e\n\nfrom gluon.languages import (read_possible_languages, read_dict, write_dict,\n                             read_plural_dict, write_plural_dict)\n\n\nif DEMO_MODE and request.function in [\'change_password\', \'pack\',\n\'pack_custom\',\'pack_plugin\', \'upgrade_web2py\', \'uninstall\',\n\'cleanup\', \'compile_app\', \'remove_compiled_app\', \'delete\',\n\'delete_plugin\', \'create_file\', \'upload_file\', \'update_languages\',\n\'reload_routes\', \'git_push\', \'git_pull\', \'install_plugin\']:\n    session.flash = T(\'disabled in demo mode\')\n    redirect(URL(\'site\'))\n\nif is_gae and request.function in (\'edit\', \'edit_language\',\n\'edit_plurals\', \'update_languages\', \'create_file\', \'install_plugin\'):\n    session.flash = T(\'disabled in GAE mode\')\n    redirect(URL(\'site\'))\n\nif not is_manager() and request.function in [\'change_password\', \'upgrade_web2py\']:\n    session.flash = T(\'disabled in multi user mode\')\n    redirect(URL(\'site\'))\n\nif FILTER_APPS and request.args(0) and not request.args(0) in FILTER_APPS:\n    session.flash = T(\'disabled in demo mode\')\n    redirect(URL(\'site\'))\n\n\nif not session.token:\n    session.token = web2py_uuid()\n\n\ndef count_lines(data):\n    return len([line for line in data.split(\'\\n\') if line.strip() and not line.startswith(\'#\')])\n\n\ndef log_progress(app, mode=\'EDIT\', filename=None, progress=0):\n    progress_file = os.path.join(apath(app, r=request), \'progress.log\')\n    now = str(request.now)[:19]\n    if not os.path.exists(progress_file):\n        safe_open(progress_file, \'w\').write(\'[%s] START\\n\' % now)\n    if filename:\n        safe_open(progress_file, \'a\').write(\n            \'[%s] %s %s: %s\\n\' % (now, mode, filename, progress))\n\n\ndef safe_open(a, b):\n    if (DEMO_MODE or is_gae) and (\'w\' in b or \'a\' in b):\n        class tmp:\n            def write(self, data):\n                pass\n            def close(self):\n                pass\n        return tmp()\n    return open(a, b)\n\n\ndef safe_read(a, b=\'r\'):\n    safe_file = safe_open(a, b)\n    try:\n        return safe_file.read()\n    finally:\n        safe_file.close()\n\n\ndef safe_write(a, value, b=\'w\'):\n    safe_file = safe_open(a, b)\n    try:\n        safe_file.write(value)\n    finally:\n        safe_file.close()\n\n\ndef get_app(name=None):\n    app = name or request.args(0)\n    if (app and os.path.exists(apath(app, r=request)) and\n        (not MULTI_USER_MODE or is_manager() or\n         db(db.app.name == app)(db.app.owner == auth.user.id).count())):\n        return app\n    session.flash = T(\'App does not exist or you are not authorized\')\n    redirect(URL(\'site\'))\n\n\ndef index():\n    """ Index handler """\n\n    send = request.vars.send\n    if DEMO_MODE:\n        session.authorized = True\n        session.last_time = t0\n    if not send:\n        send = URL(\'site\')\n    if session.authorized:\n        redirect(send)\n    elif request.vars.password:\n        if verify_password(request.vars.password[:1024]):\n            session.authorized = True\n            login_record(True)\n\n            if CHECK_VERSION:\n                session.check_version = True\n            else:\n                session.check_version = False\n\n            session.last_time = t0\n            if isinstance(send, list):  # ## why does this happen?\n                send = str(send[0])\n\n            redirect(send)\n        else:\n            times_denied = login_record(False)\n            if times_denied >= allowed_number_of_attempts:\n                response.flash = \\\n                    T(\'admin disabled because too many invalid login attempts\')\n            elif times_denied == allowed_number_of_attempts - 1:\n                response.flash = \\\n                    T(\'You have one more login attempt before you are locked out\')\n            else:\n                response.flash = T(\'invalid password.\')\n    return dict(send=send)\n\n\ndef check_version():\n    """ Checks if web2py is up to date """\n\n    session.forget()\n    session._unlock(response)\n\n    new_version, version = check_new_version(request.env.web2py_version,\n                                             WEB2PY_VERSION_URL)\n\n    if new_version == -1:\n        return A(T(\'Unable to check for upgrades\'), _href=WEB2PY_URL)\n    elif new_version != True:\n        return A(T(\'web2py is up to date\'), _href=WEB2PY_URL)\n    elif platform.system().lower() in (\'windows\', \'win32\', \'win64\') and os.path.exists("web2py.exe"):\n        return SPAN(\'You should upgrade to %s\' % version.split(\'(\')[0])\n    else:\n        return sp_button(URL(\'upgrade_web2py\'), T(\'upgrade now to %s\') % version.split(\'(\')[0])\n\n\ndef logout():\n    """ Logout handler """\n    session.authorized = None\n    if MULTI_USER_MODE:\n        redirect(URL(\'user/logout\'))\n    redirect(URL(\'index\'))\n\n\ndef change_password():\n\n    if session.pam_user:\n        session.flash = T(\n            \'PAM authenticated user, cannot change password here\')\n        redirect(URL(\'site\'))\n    form = SQLFORM.factory(Field(\'current_admin_password\', \'password\'),\n                           Field(\'new_admin_password\',\n                                 \'password\', requires=IS_STRONG()),\n                           Field(\'new_admin_password_again\', \'password\'),\n                           _class="span4 well")\n    if form.accepts(request.vars):\n        if not verify_password(request.vars.current_admin_password):\n            form.errors.current_admin_password = T(\'invalid password\')\n        elif form.vars.new_admin_password != form.vars.new_admin_password_again:\n            form.errors.new_admin_password_again = T(\'no match\')\n        else:\n            path = abspath(\'parameters_%s.py\' % request.env.server_port)\n            safe_write(path, \'password="%s"\' % CRYPT()(\n                request.vars.new_admin_password)[0])\n            session.flash = T(\'password changed\')\n            redirect(URL(\'site\'))\n    return dict(form=form)\n\n\ndef site():\n    """ Site handler """\n\n    myversion = request.env.web2py_version\n\n    # Shortcut to make the elif statements more legible\n    file_or_appurl = \'file\' in request.vars or \'appurl\' in request.vars\n\n    class IS_VALID_APPNAME(object):\n        def __call__(self, value):\n            if not re.compile(\'^\\w+$\').match(value):\n                return (value, T(\'Invalid application name\'))\n            if not request.vars.overwrite and \\\n                    os.path.exists(os.path.join(apath(r=request), value)):\n                return (value, T(\'Application exists already\'))\n            return (value, None)\n\n    is_appname = IS_VALID_APPNAME()\n    form_create = SQLFORM.factory(Field(\'name\', requires=is_appname),\n                                  table_name=\'appcreate\')\n    form_update = SQLFORM.factory(Field(\'name\', requires=is_appname),\n                                  Field(\'file\', \'upload\', uploadfield=False),\n                                  Field(\'url\'),\n                                  Field(\'overwrite\', \'boolean\'),\n                                  table_name=\'appupdate\')\n    form_create.process()\n    form_update.process()\n\n    if DEMO_MODE:\n        pass\n\n    elif form_create.accepted:\n        # create a new application\n        appname = cleanpath(form_create.vars.name)\n        created, error = app_create(appname, request, info=True)\n        if created:\n            if MULTI_USER_MODE:\n                db.app.insert(name=appname, owner=auth.user.id)\n            log_progress(appname)\n            session.flash = T(\'new application "%s" created\', appname)\n            redirect(URL(\'design\', args=appname))\n        else:\n            session.flash = \\\n                DIV(T(\'unable to create application "%s"\', appname),\n                    PRE(error))\n        redirect(URL(r=request))\n\n    elif form_update.accepted:\n        if (form_update.vars.url or \'\').endswith(\'.git\'):\n            if not have_git:\n                session.flash = GIT_MISSING\n                redirect(URL(r=request))\n            target = os.path.join(apath(r=request), form_update.vars.name)\n            try:\n                new_repo = git.Repo.clone_from(form_update.vars.url, target)\n                session.flash = T(\'new application "%s" imported\',\n                                  form_update.vars.name)\n            except git.GitCommandError, err:\n                session.flash = T(\'Invalid git repository specified.\')\n            redirect(URL(r=request))\n\n        elif form_update.vars.url:\n            # fetch an application via URL or file upload\n            try:\n                f = urllib.urlopen(form_update.vars.url)\n                if f.code == 404:\n                    raise Exception("404 file not found")\n            except Exception, e:\n                session.flash = \\\n                    DIV(T(\'Unable to download app because:\'), PRE(str(e)))\n                redirect(URL(r=request))\n            fname = form_update.vars.url\n\n        elif form_update.accepted and form_update.vars.file:\n            fname = request.vars.file.filename\n            f = request.vars.file.file\n\n        else:\n            session.flash = \'No file uploaded and no URL specified\'\n            redirect(URL(r=request))\n\n        if f:\n            appname = cleanpath(form_update.vars.name)\n            installed = app_install(appname, f,\n                                    request, fname,\n                                    overwrite=form_update.vars.overwrite)\n        if f and installed:\n            msg = \'application %(appname)s installed with md5sum: %(digest)s\'\n            if MULTI_USER_MODE:\n                db.app.insert(name=appname, owner=auth.user.id)\n            log_progress(appname)\n            session.flash = T(msg, dict(appname=appname,\n                                        digest=md5_hash(installed)))\n        elif f and form_update.vars.overwrite:\n            msg = \'unable to install application "%(appname)s"\'\n            session.flash = T(msg, dict(appname=form_update.vars.name))\n        else:\n            msg = \'unable to install application "%(appname)s"\'\n            session.flash = T(msg, dict(appname=form_update.vars.name))\n        redirect(URL(r=request))\n\n    regex = re.compile(\'^\\w+$\')\n\n    if is_manager():\n        apps = [f for f in os.listdir(apath(r=request)) if regex.match(f)]\n    else:\n        apps = [f.name for f in db(db.app.owner == auth.user_id).select()]\n\n    if FILTER_APPS:\n        apps = [f for f in apps if f in FILTER_APPS]\n\n    apps = sorted(apps, lambda a, b: cmp(a.upper(), b.upper()))\n    myplatform = platform.python_version()\n    return dict(app=None, apps=apps, myversion=myversion, myplatform=myplatform,\n                form_create=form_create, form_update=form_update)\n\n\ndef report_progress(app):\n    import datetime\n    progress_file = os.path.join(apath(app, r=request), \'progress.log\')\n    regex = re.compile(\'\\[(.*?)\\][^\\:]+\\:\\s+(\\-?\\d+)\')\n    if not os.path.exists(progress_file):\n        return []\n    matches = regex.findall(open(progress_file, \'r\').read())\n    events, counter = [], 0\n    for m in matches:\n        if not m:\n            continue\n        days = -(request.now - datetime.datetime.strptime(m[0],\n                 \'%Y-%m-%d %H:%M:%S\')).days\n        counter += int(m[1])\n        events.append([days, counter])\n    return events\n\n\ndef pack():\n    app = get_app()\n\n    try:\n        if len(request.args) == 1:\n            fname = \'web2py.app.%s.w2p\' % app\n            filename = app_pack(app, request, raise_ex=True)\n        else:\n            fname = \'web2py.app.%s.compiled.w2p\' % app\n            filename = app_pack_compiled(app, request, raise_ex=True)\n    except Exception, e:\n        filename = None\n\n    if filename:\n        response.headers[\'Content-Type\'] = \'application/w2p\'\n        disposition = \'attachment; filename=%s\' % fname\n        response.headers[\'Content-Disposition\'] = disposition\n        return safe_read(filename, \'rb\')\n    else:\n        session.flash = T(\'internal error: %s\', e)\n        redirect(URL(\'site\'))\n\ndef pack_plugin():\n    app = get_app()\n    if len(request.args) == 2:\n        fname = \'web2py.plugin.%s.w2p\' % request.args[1]\n        filename = plugin_pack(app, request.args[1], request)\n    if filename:\n        response.headers[\'Content-Type\'] = \'application/w2p\'\n        disposition = \'attachment; filename=%s\' % fname\n        response.headers[\'Content-Disposition\'] = disposition\n        return safe_read(filename, \'rb\')\n    else:\n        session.flash = T(\'internal error\')\n        redirect(URL(\'plugin\', args=request.args))\n\ndef pack_custom():\n    app = get_app()\n    base = apath(app, r=request)\n    if request.post_vars.file:\n        files = request.post_vars.file\n        files = [files] if not isinstance(files,list) else files\n        fname = \'web2py.app.%s.w2p\' % app\n        try:\n            filename = app_pack(app, request, raise_ex=True, filenames=files)\n        except Exception, e:\n            filename = None\n        if filename:\n            response.headers[\'Content-Type\'] = \'application/w2p\'\n            disposition = \'attachment; filename=%s\' % fname\n            response.headers[\'Content-Disposition\'] = disposition\n            return safe_read(filename, \'rb\')\n        else:\n            session.flash = T(\'internal error: %s\', e)\n            redirect(URL(args=request.args))\n    def ignore(fs):\n        return [f for f in fs if not (\n                f[:1] in \'#\' or f.endswith(\'~\') or f.endswith(\'.bak\'))]\n    files = {}\n    for (r,d,f) in os.walk(base):\n        files[r] = {\'folders\':ignore(d),\'files\':ignore(f)}\n    return locals()\n\n\ndef upgrade_web2py():\n    dialog = FORM.confirm(T(\'Upgrade\'),\n                          {T(\'Cancel\'): URL(\'site\')})\n    if dialog.accepted:\n        (success, error) = upgrade(request)\n        if success:\n            session.flash = T(\'web2py upgraded; please restart it\')\n        else:\n            session.flash = T(\'unable to upgrade because "%s"\', error)\n        redirect(URL(\'site\'))\n    return dict(dialog=dialog)\n\n\ndef uninstall():\n    app = get_app()\n\n    dialog = FORM.confirm(T(\'Uninstall\'),\n                          {T(\'Cancel\'): URL(\'site\')})\n    dialog[\'_id\'] = \'confirm_form\'\n    dialog[\'_class\'] = \'well\'\n    for component in dialog.components:\n        component[\'_class\'] = \'btn\'\n\n    if dialog.accepted:\n        if MULTI_USER_MODE:\n            if is_manager() and db(db.app.name == app).delete():\n                pass\n            elif db(db.app.name == app)(db.app.owner == auth.user.id).delete():\n                pass\n            else:\n                session.flash = T(\'no permission to uninstall "%s"\', app)\n                redirect(URL(\'site\'))\n        try:\n            filename = app_pack(app, request, raise_ex=True)\n        except:\n            session.flash = T(\'unable to uninstall "%s"\', app)\n        else:\n            if app_uninstall(app, request):\n                session.flash = T(\'application "%s" uninstalled\', app)\n            else:\n                session.flash = T(\'unable to uninstall "%s"\', app)\n        redirect(URL(\'site\'))\n    return dict(app=app, dialog=dialog)\n\n\ndef cleanup():\n    app = get_app()\n    clean = app_cleanup(app, request)\n    if not clean:\n        session.flash = T("some files could not be removed")\n    else:\n        session.flash = T(\'cache, errors and sessions cleaned\')\n\n    redirect(URL(\'site\'))\n\n\ndef compile_app():\n    app = get_app()\n    c = app_compile(app, request)\n    if not c:\n        session.flash = T(\'application compiled\')\n    else:\n        session.flash = DIV(T(\'Cannot compile: there are errors in your app:\'),\n                            CODE(c))\n    redirect(URL(\'site\'))\n\n\ndef remove_compiled_app():\n    """ Remove the compiled application """\n    app = get_app()\n    remove_compiled_application(apath(app, r=request))\n    session.flash = T(\'compiled application removed\')\n    redirect(URL(\'site\'))\n\n\ndef delete():\n    """ Object delete handler """\n    app = get_app()\n    filename = \'/\'.join(request.args)\n    sender = request.vars.sender\n\n    if isinstance(sender, list):  # ## fix a problem with Vista\n        sender = sender[0]\n\n    dialog = FORM.confirm(T(\'Delete\'),\n                          {T(\'Cancel\'): URL(sender, anchor=request.vars.id)})\n\n    if dialog.accepted:\n        try:\n            full_path = apath(filename, r=request)\n            lineno = count_lines(open(full_path, \'r\').read())\n            os.unlink(full_path)\n            log_progress(app, \'DELETE\', filename, progress=-lineno)\n            session.flash = T(\'file "%(filename)s" deleted\',\n                              dict(filename=filename))\n        except Exception:\n            session.flash = T(\'unable to delete file "%(filename)s"\',\n                              dict(filename=filename))\n        redirect(URL(sender, anchor=request.vars.id2))\n    return dict(dialog=dialog, filename=filename)\n\n\ndef enable():\n    app = get_app()\n    filename = os.path.join(apath(app, r=request), \'DISABLED\')\n    if is_gae:\n        return SPAN(T(\'Not supported\'), _style=\'color:yellow\')\n    elif os.path.exists(filename):\n        os.unlink(filename)\n        return SPAN(T(\'Disable\'), _style=\'color:green\')\n    else:\n        safe_open(filename, \'wb\').write(\'disabled: True\\ntime-disabled: %s\' % request.now)\n        return SPAN(T(\'Enable\'), _style=\'color:red\')\n\ndef peek():\n    """ Visualize object code """\n    app = get_app(request.vars.app)\n    filename = \'/\'.join(request.args)\n    if request.vars.app:\n        path = abspath(filename)\n    else:\n        path = apath(filename, r=request)\n    try:\n        data = safe_read(path).replace(\'\\r\', \'\')\n    except IOError:\n        session.flash = T(\'file does not exist\')\n        redirect(URL(\'site\'))\n\n    extension = filename[filename.rfind(\'.\') + 1:].lower()\n\n    return dict(app=app,\n                filename=filename,\n                data=data,\n                extension=extension)\n\n\ndef test():\n    """ Execute controller tests """\n    app = get_app()\n    if len(request.args) > 1:\n        file = request.args[1]\n    else:\n        file = \'.*\\.py\'\n\n    controllers = listdir(\n        apath(\'%s/controllers/\' % app, r=request), file + \'$\')\n\n    return dict(app=app, controllers=controllers)\n\n\ndef keepalive():\n    return \'\'\n\n\ndef search():\n    keywords = request.vars.keywords or \'\'\n    app = get_app()\n\n    def match(filename, keywords):\n        filename = os.path.join(apath(app, r=request), filename)\n        if keywords in read_file(filename, \'rb\'):\n            return True\n        return False\n    path = apath(request.args[0], r=request)\n    files1 = glob(os.path.join(path, \'*/*.py\'))\n    files2 = glob(os.path.join(path, \'*/*.html\'))\n    files3 = glob(os.path.join(path, \'*/*/*.html\'))\n    files = [x[len(path) + 1:].replace(\n        \'\\\\\', \'/\') for x in files1 + files2 + files3 if match(x, keywords)]\n    return response.json(dict(files=files, message=T.M(\'Searching: **%s** %%{file}\', len(files))))\n\n\ndef edit():\n    """ File edit handler """\n    # Load json only if it is ajax edited...\n    app = get_app(request.vars.app)\n    app_path = apath(app, r=request)\n    preferences={\'theme\':\'web2py\', \'editor\': \'default\', \'closetag\': \'true\', \'codefolding\': \'false\', \'tabwidth\':\'4\', \'indentwithtabs\':\'false\', \'linenumbers\':\'true\', \'highlightline\':\'true\'}\n    config = Config(os.path.join(request.folder, \'settings.cfg\'),\n                    section=\'editor\', default_values={})\n    preferences.update(config.read())\n\n    if not(request.ajax) and not(is_mobile):\n        # return the scaffolding, the rest will be through ajax requests\n        response.title = T(\'Editing %s\') % app\n        return response.render (\'default/edit.html\', dict(app=app, editor_settings=preferences))\n\n    # show settings tab and save prefernces\n    if \'settings\' in request.vars:\n        if request.post_vars:        #save new preferences\n            post_vars = request.post_vars.items()\n            # Since unchecked checkbox are not serialized, we must set them as false by hand to store the correct preference in the settings \n            post_vars+= [(opt, \'false\') for opt in preferences if opt not in request.post_vars ]\n            if config.save(post_vars):\n                response.headers["web2py-component-flash"] = T(\'Preferences saved correctly\')\n            else:\n                response.headers["web2py-component-flash"] = T(\'Preferences saved on session only\')\n            response.headers["web2py-component-command"] = "update_editor(%s);$(\'a[href=#editor_settings] button.close\').click();" % response.json(config.read())\n            return\n        else:\n            details = {\'realfilename\':\'settings\', \'filename\':\'settings\', \'id\':\'editor_settings\', \'force\': False}\n            details[\'plain_html\'] = response.render(\'default/editor_settings.html\', {\'editor_settings\':preferences})\n            return response.json(details)\n\n    """ File edit handler """\n    # Load json only if it is ajax edited...\n    app = get_app(request.vars.app)\n    filename = \'/\'.join(request.args)\n    realfilename = request.args[-1]\n    if request.vars.app:\n        path = abspath(filename)\n    else:\n        path = apath(filename, r=request)\n    # Try to discover the file type\n    if filename[-3:] == \'.py\':\n        filetype = \'python\'\n    elif filename[-5:] == \'.html\':\n        filetype = \'html\'\n    elif filename[-5:] == \'.load\':\n        filetype = \'html\'\n    elif filename[-4:] == \'.css\':\n        filetype = \'css\'\n    elif filename[-3:] == \'.js\':\n        filetype = \'javascript\'\n    else:\n        filetype = \'html\'\n\n    # ## check if file is not there\n    if (\'revert\' in request.vars) and os.path.exists(path + \'.bak\'):\n        try:\n            data = safe_read(path + \'.bak\')\n            data1 = safe_read(path)\n        except IOError:\n            session.flash = T(\'Invalid action\')\n            if \'from_ajax\' in request.vars:\n                return response.json({\'error\': str(T(\'Invalid action\'))})\n            else:\n                redirect(URL(\'site\'))\n\n        safe_write(path, data)\n        file_hash = md5_hash(data)\n        saved_on = time.ctime(os.stat(path)[stat.ST_MTIME])\n        safe_write(path + \'.bak\', data1)\n        response.flash = T(\'file "%s" of %s restored\', (filename, saved_on))\n    else:\n        try:\n            data = safe_read(path)\n        except IOError:\n            session.flash = T(\'Invalid action\')\n            if \'from_ajax\' in request.vars:\n                return response.json({\'error\': str(T(\'Invalid action\'))})\n            else:\n                redirect(URL(\'site\'))\n\n        lineno_old = count_lines(data)\n        file_hash = md5_hash(data)\n        saved_on = time.ctime(os.stat(path)[stat.ST_MTIME])\n\n        if request.vars.file_hash and request.vars.file_hash != file_hash:\n            session.flash = T(\'file changed on disk\')\n            data = request.vars.data.replace(\'\\r\\n\', \'\\n\').strip() + \'\\n\'\n            safe_write(path + \'.1\', data)\n            if \'from_ajax\' in request.vars:\n                return response.json({\'error\': str(T(\'file changed on disk\')),\n                                      \'redirect\': URL(\'resolve\',\n                                                      args=request.args)})\n            else:\n                redirect(URL(\'resolve\', args=request.args))\n        elif request.vars.data:\n            safe_write(path + \'.bak\', data)\n            data = request.vars.data.replace(\'\\r\\n\', \'\\n\').strip() + \'\\n\'\n            safe_write(path, data)\n            lineno_new = count_lines(data)\n            log_progress(\n                app, \'EDIT\', filename, progress=lineno_new - lineno_old)\n            file_hash = md5_hash(data)\n            saved_on = time.ctime(os.stat(path)[stat.ST_MTIME])\n            response.flash = T(\'file saved on %s\', saved_on)\n\n    data_or_revert = (request.vars.data or request.vars.revert)\n\n    # Check compile errors\n    highlight = None\n    if filetype == \'python\' and request.vars.data:\n        import _ast\n        try:\n            code = request.vars.data.rstrip().replace(\'\\r\\n\', \'\\n\') + \'\\n\'\n            compile(code, path, "exec", _ast.PyCF_ONLY_AST)\n        except Exception, e:\n            # offset calculation is only used for textarea (start/stop)\n            start = sum([len(line) + 1 for l, line\n                         in enumerate(request.vars.data.split("\\n"))\n                         if l < e.lineno - 1])\n            if e.text and e.offset:\n                offset = e.offset - (len(e.text) - len(\n                    e.text.splitlines()[-1]))\n            else:\n                offset = 0\n            highlight = {\'start\': start, \'end\': start +\n                         offset + 1, \'lineno\': e.lineno, \'offset\': offset}\n            try:\n                ex_name = e.__class__.__name__\n            except:\n                ex_name = \'unknown exception!\'\n            response.flash = DIV(T(\'failed to compile file because:\'), BR(),\n                                 B(ex_name), \' \' + T(\'at line %s\', e.lineno),\n                                 offset and \' \' +\n                                 T(\'at char %s\', offset) or \'\',\n                                 PRE(str(e)))\n    if data_or_revert and request.args[1] == \'modules\':\n        # Lets try to reload the modules\n        try:\n            mopath = \'.\'.join(request.args[2:])[:-3]\n            exec \'import applications.%s.modules.%s\' % (\n                request.args[0], mopath)\n            reload(sys.modules[\'applications.%s.modules.%s\'\n                               % (request.args[0], mopath)])\n        except Exception, e:\n            response.flash = DIV(\n                T(\'failed to reload module because:\'), PRE(str(e)))\n\n    edit_controller = None\n    editviewlinks = None\n    view_link = None\n    if filetype == \'html\' and len(request.args) >= 3:\n        cfilename = os.path.join(request.args[0], \'controllers\',\n                                 request.args[2] + \'.py\')\n        if os.path.exists(apath(cfilename, r=request)):\n            edit_controller = URL(\'edit\', args=[cfilename.replace(os.sep, "/")])\n            view = request.args[3].replace(\'.html\', \'\')\n            view_link = URL(request.args[0], request.args[2], view)\n    elif filetype == \'python\' and request.args[1] == \'controllers\':\n        ## it\'s a controller file.\n        ## Create links to all of the associated view files.\n        app = get_app()\n        viewname = os.path.splitext(request.args[2])[0]\n        viewpath = os.path.join(app, \'views\', viewname)\n        aviewpath = apath(viewpath, r=request)\n        viewlist = []\n        if os.path.exists(aviewpath):\n            if os.path.isdir(aviewpath):\n                viewlist = glob(os.path.join(aviewpath, \'*.html\'))\n        elif os.path.exists(aviewpath + \'.html\'):\n            viewlist.append(aviewpath + \'.html\')\n        if len(viewlist):\n            editviewlinks = []\n            for v in viewlist:\n                vf = os.path.split(v)[-1]\n                vargs = "/".join([viewpath.replace(os.sep, "/"), vf])\n                editviewlinks.append(A(vf.split(".")[0],\n                                       _class="editor_filelink",\n                                       _href=URL(\'edit\', args=[vargs])))\n\n    if len(request.args) > 2 and request.args[1] == \'controllers\':\n        controller = (request.args[2])[:-3]\n        functions = find_exposed_functions(data)\n    else:\n        (controller, functions) = (None, None)\n\n    if \'from_ajax\' in request.vars:\n        return response.json({\'file_hash\': file_hash, \'saved_on\': saved_on, \'functions\': functions, \'controller\': controller, \'application\': request.args[0], \'highlight\': highlight})\n    else:\n        file_details = dict(app=request.args[0],\n                    lineno=request.vars.lineno or 1,\n                    editor_settings=preferences,\n                    filename=filename,\n                    realfilename=realfilename,\n                    filetype=filetype,\n                    data=data,\n                    edit_controller=edit_controller,\n                    file_hash=file_hash,\n                    saved_on=saved_on,\n                    controller=controller,\n                    functions=functions,\n                    view_link=view_link,\n                    editviewlinks=editviewlinks,\n                    id=IS_SLUG()(filename)[0],\n                    force= True if (request.vars.restore or \n                                    request.vars.revert) else False)\n        plain_html = response.render(\'default/edit_js.html\', file_details)\n        file_details[\'plain_html\'] = plain_html\n        if is_mobile:\n            return response.render(\'default.mobile/edit.html\', \n                                   file_details, editor_settings=preferences)\n        else:\n            return response.json(file_details)\n\ndef todolist():\n    """ Returns all TODO of the requested app\n    """\n    app = request.vars.app or \'\'\n    app_path = apath(\'%(app)s\' % {\'app\':app}, r=request)\n    dirs=[\'models\', \'controllers\', \'modules\', \'private\' ]\n    def listfiles(app, dir, regexp=\'.*\\.py$\'):\n        files = sorted( listdir(apath(\'%(app)s/%(dir)s/\' % {\'app\':app, \'dir\':dir}, r=request), regexp))\n        files = [x.replace(os.path.sep, \'/\') for x in files if not x.endswith(\'.bak\')]\n        return files\n\n    pattern = \'#\\s*(todo)+\\s+(.*)\'\n    regex = re.compile(pattern, re.IGNORECASE)\n\n    output = []\n    for d in dirs:\n        for f in listfiles(app, d):\n            matches = []\n            filename= apath(os.path.join(app, d, f), r=request)\n            with open(filename, \'r\') as f_s:\n                src = f_s.read()\n                for m in regex.finditer(src):\n                    start = m.start()\n                    lineno = src.count(\'\\n\', 0, start) + 1\n                    matches.append({\'text\':m.group(0), \'lineno\':lineno})\n            if len(matches) != 0:\n                output.append({\'filename\':f,\'matches\':matches, \'dir\':d})\n\n    return {\'todo\':output, \'app\': app}\n\ndef editor_sessions():\n    config = Config(os.path.join(request.folder, \'settings.cfg\'),\n                    section=\'editor_sessions\', default_values={})\n    preferences = config.read()\n\n    if request.vars.session_name and request.vars.files:\n        session_name = request.vars.session_name\n        files = request.vars.files\n        preferences.update({session_name:\',\'.join(files)})\n        if config.save(preferences.items()):\n            response.headers["web2py-component-flash"] = T(\'Session saved correctly\')\n        else:\n            response.headers["web2py-component-flash"] = T(\'Session saved on session only\')\n\n    return response.render(\'default/editor_sessions.html\', {\'editor_sessions\':preferences})\n\ndef resolve():\n    """\n    """\n\n    filename = \'/\'.join(request.args)\n    # ## check if file is not there\n    path = apath(filename, r=request)\n    a = safe_read(path).split(\'\\n\')\n    try:\n        b = safe_read(path + \'.1\').split(\'\\n\')\n    except IOError:\n        session.flash = \'Other file, no longer there\'\n        redirect(URL(\'edit\', args=request.args))\n\n    d = difflib.ndiff(a, b)\n\n    def leading(line):\n        """  """\n\n        # TODO: we really need to comment this\n        z = \'\'\n        for (k, c) in enumerate(line):\n            if c == \' \':\n                z += \'&nbsp;\'\n            elif c == \' \\t\':\n                z += \'&nbsp;\'\n            elif k == 0 and c == \'?\':\n                pass\n            else:\n                break\n\n        return XML(z)\n\n    def getclass(item):\n        """ Determine item class """\n\n        if item[0] == \' \':\n            return \'normal\'\n        if item[0] == \'+\':\n            return \'plus\'\n        if item[0] == \'-\':\n            return \'minus\'\n\n    if request.vars:\n        c = \'\\n\'.join([item[2:].rstrip() for (i, item) in enumerate(d) if item[0]\n                       == \' \' or \'line%i\' % i in request.vars])\n        safe_write(path, c)\n        session.flash = \'files merged\'\n        redirect(URL(\'edit\', args=request.args))\n    else:\n        # Making the short circuit compatible with <= python2.4\n        gen_data = lambda index, item: not item[:1] in [\'+\', \'-\'] and "" \\\n            or INPUT(_type=\'checkbox\',\n                     _name=\'line%i\' % index,\n                     value=item[0] == \'+\')\n\n        diff = TABLE(*[TR(TD(gen_data(i, item)),\n                          TD(item[0]),\n                          TD(leading(item[2:]),\n                          TT(item[2:].rstrip())),\n                          _class=getclass(item))\n                       for (i, item) in enumerate(d) if item[0] != \'?\'])\n\n    return dict(diff=diff, filename=filename)\n\n\ndef edit_language():\n    """ Edit language file """\n    app = get_app()\n    filename = \'/\'.join(request.args)\n    response.title = request.args[-1]\n    strings = read_dict(apath(filename, r=request))\n\n    if \'__corrupted__\' in strings:\n        form = SPAN(strings[\'__corrupted__\'], _class=\'error\')\n        return dict(filename=filename, form=form)\n\n    keys = sorted(strings.keys(), lambda x, y: cmp(\n        unicode(x, \'utf-8\').lower(), unicode(y, \'utf-8\').lower()))\n    rows = []\n    rows.append(H2(T(\'Original/Translation\')))\n\n    for key in keys:\n        name = md5_hash(key)\n        s = strings[key]\n        (prefix, sep, key) = key.partition(\'\\x01\')\n        if sep:\n            prefix = SPAN(prefix + \': \', _class=\'tm_ftag\')\n            k = key\n        else:\n            (k, prefix) = (prefix, \'\')\n\n        _class = \'untranslated\' if k == s else \'translated\'\n\n        if len(s) <= 40:\n            elem = INPUT(_type=\'text\', _name=name, value=s,\n                         _size=70, _class=_class)\n        else:\n            elem = TEXTAREA(_name=name, value=s, _cols=70,\n                            _rows=5, _class=_class)\n\n        # Making the short circuit compatible with <= python2.4\n        k = (s != k) and k or B(k)\n\n        new_row = DIV(LABEL(prefix, k, _style="font-weight:normal;"),\n                      CAT(elem, \'\\n\', TAG.BUTTON(\n                    T(\'delete\'),\n                    _onclick=\'return delkey("%s")\' % name,\n                    _class=\'btn\')), _id=name, _class=\'span6 well well-small\')\n\n        rows.append(DIV(new_row,_class="row-fluid"))\n    rows.append(DIV(INPUT(_type=\'submit\', _value=T(\'update\'), _class="btn btn-primary"), _class=\'controls\'))\n    form = FORM(*rows)\n    if form.accepts(request.vars, keepvalues=True):\n        strs = dict()\n        for key in keys:\n            name = md5_hash(key)\n            if form.vars[name] == chr(127):\n                continue\n            strs[key] = form.vars[name]\n        write_dict(apath(filename, r=request), strs)\n        session.flash = T(\'file saved on %(time)s\', dict(time=time.ctime()))\n        redirect(URL(r=request, args=request.args))\n    return dict(app=request.args[0], filename=filename, form=form)\n\n\ndef edit_plurals():\n    """ Edit plurals file """\n    app = get_app()\n    filename = \'/\'.join(request.args)\n    plurals = read_plural_dict(\n        apath(filename, r=request))  # plural forms dictionary\n    nplurals = int(request.vars.nplurals) - 1  # plural forms quantity\n    xnplurals = xrange(nplurals)\n\n    if \'__corrupted__\' in plurals:\n        # show error message and exit\n        form = SPAN(plurals[\'__corrupted__\'], _class=\'error\')\n        return dict(filename=filename, form=form)\n\n    keys = sorted(plurals.keys(), lambda x, y: cmp(\n        unicode(x, \'utf-8\').lower(), unicode(y, \'utf-8\').lower()))\n    tab_rows = []\n    for key in keys:\n        name = md5_hash(key)\n        forms = plurals[key]\n\n        if len(forms) < nplurals:\n            forms.extend(None for i in xrange(nplurals - len(forms)))\n        tab_col1 = DIV(CAT(LABEL(T("Singular Form")), B(key,\n                                                        _class=\'fake-input\')))\n        tab_inputs = [SPAN(LABEL(T("Plural Form #%s", n + 1)), INPUT(_type=\'text\', _name=name + \'_\' + str(n), value=forms[n], _size=20), _class=\'span6\') for n in xnplurals]\n        tab_col2 = DIV(CAT(*tab_inputs))\n        tab_col3 = DIV(CAT(LABEL(XML(\'&nbsp;\')), TAG.BUTTON(T(\'delete\'), _onclick=\'return delkey("%s")\' % name, _class=\'btn\'), _class=\'span6\'))\n        tab_row = DIV(DIV(tab_col1, \'\\n\', tab_col2, \'\\n\', tab_col3, _class=\'well well-small\'), _id=name, _class=\'row-fluid tab_row\')\n        tab_rows.append(tab_row)\n\n    tab_rows.append(DIV(TAG[\'button\'](T(\'update\'), _type=\'submit\',\n                                      _class=\'btn btn-primary\'),\n                        _class=\'controls\'))\n    tab_container = DIV(*tab_rows, **dict(_class="row-fluid"))\n\n    form = FORM(tab_container)\n    if form.accepts(request.vars, keepvalues=True):\n        new_plurals = dict()\n        for key in keys:\n            name = md5_hash(key)\n            if form.vars[name + \'_0\'] == chr(127):\n                continue\n            new_plurals[key] = [form.vars[name + \'_\' + str(n)]\n                                for n in xnplurals]\n        write_plural_dict(apath(filename, r=request), new_plurals)\n        session.flash = T(\'file saved on %(time)s\', dict(time=time.ctime()))\n        redirect(URL(r=request, args=request.args, vars=dict(\n            nplurals=request.vars.nplurals)))\n    return dict(app=request.args[0], filename=filename, form=form)\n\n\ndef about():\n    """ Read about info """\n    app = get_app()\n    # ## check if file is not there\n    about = safe_read(apath(\'%s/ABOUT\' % app, r=request))\n    license = safe_read(apath(\'%s/LICENSE\' % app, r=request))\n    return dict(app=app, about=MARKMIN(about), license=MARKMIN(license), progress=report_progress(app))\n\n\ndef design():\n    """ Application design handler """\n    app = get_app()\n\n    if not response.flash and app == request.application:\n        msg = T(\'ATTENTION: you cannot edit the running application!\')\n        response.flash = msg\n\n    if request.vars and not request.vars.token == session.token:\n        redirect(URL(\'logout\'))\n\n    if request.vars.pluginfile is not None and not isinstance(request.vars.pluginfile, str):\n        filename = os.path.basename(request.vars.pluginfile.filename)\n        if plugin_install(app, request.vars.pluginfile.file,\n                          request, filename):\n            session.flash = T(\'new plugin installed\')\n            redirect(URL(\'design\', args=app))\n        else:\n            session.flash = \\\n                T(\'unable to create application "%s"\', request.vars.filename)\n        redirect(URL(r=request))\n    elif isinstance(request.vars.pluginfile, str):\n        session.flash = T(\'plugin not specified\')\n        redirect(URL(r=request))\n\n    # If we have only pyc files it means that\n    # we cannot design\n    if os.path.exists(apath(\'%s/compiled\' % app, r=request)):\n        session.flash = \\\n            T(\'application is compiled and cannot be designed\')\n        redirect(URL(\'site\'))\n\n    # Get all models\n    models = listdir(apath(\'%s/models/\' % app, r=request), \'.*\\.py$\')\n    models = [x.replace(\'\\\\\', \'/\') for x in models]\n    defines = {}\n    for m in models:\n        data = safe_read(apath(\'%s/models/%s\' % (app, m), r=request))\n        defines[m] = regex_tables.findall(data)\n        defines[m].sort()\n\n    # Get all controllers\n    controllers = sorted(\n        listdir(apath(\'%s/controllers/\' % app, r=request), \'.*\\.py$\'))\n    controllers = [x.replace(\'\\\\\', \'/\') for x in controllers]\n    functions = {}\n    for c in controllers:\n        data = safe_read(apath(\'%s/controllers/%s\' % (app, c), r=request))\n        items = find_exposed_functions(data)\n        functions[c] = items\n\n    # Get all views\n    views = sorted(\n        listdir(apath(\'%s/views/\' % app, r=request), \'[\\w/\\-]+(\\.\\w+)+$\'))\n    views = [x.replace(\'\\\\\', \'/\') for x in views if not x.endswith(\'.bak\')]\n    extend = {}\n    include = {}\n    for c in views:\n        data = safe_read(apath(\'%s/views/%s\' % (app, c), r=request))\n        items = regex_extend.findall(data)\n\n        if items:\n            extend[c] = items[0][1]\n\n        items = regex_include.findall(data)\n        include[c] = [i[1] for i in items]\n\n    # Get all modules\n    modules = listdir(apath(\'%s/modules/\' % app, r=request), \'.*\\.py$\')\n    modules = modules = [x.replace(\'\\\\\', \'/\') for x in modules]\n    modules.sort()\n\n    # Get all private files\n    privates = listdir(apath(\'%s/private/\' % app, r=request), \'[^\\.#].*\')\n    privates = [x.replace(\'\\\\\', \'/\') for x in privates]\n    privates.sort()\n\n    # Get all static files\n    statics = listdir(apath(\'%s/static/\' % app, r=request), \'[^\\.#].*\',\n                      maxnum = MAXNFILES)\n    statics = [x.replace(os.path.sep, \'/\') for x in statics]\n    statics.sort()\n\n    # Get all languages\n    langpath = os.path.join(apath(app, r=request),\'languages\')\n    languages = dict([(lang, info) for lang, info\n                      in read_possible_languages(langpath).iteritems()\n                      if info[2] != 0])  # info[2] is langfile_mtime:\n                                         # get only existed files\n\n    #Get crontab\n    cronfolder = apath(\'%s/cron\' % app, r=request)\n    crontab = apath(\'%s/cron/crontab\' % app, r=request)\n    if not is_gae:\n        if not os.path.exists(cronfolder):\n            os.mkdir(cronfolder)\n        if not os.path.exists(crontab):\n            safe_write(crontab, \'#crontab\')\n\n    plugins = []\n\n    def filter_plugins(items, plugins):\n        plugins += [item[7:].split(\'/\')[0].split(\n            \'.\')[0] for item in items if item.startswith(\'plugin_\')]\n        plugins[:] = list(set(plugins))\n        plugins.sort()\n        return [item for item in items if not item.startswith(\'plugin_\')]\n\n    return dict(app=app,\n                models=filter_plugins(models, plugins),\n                defines=defines,\n                controllers=filter_plugins(controllers, plugins),\n                functions=functions,\n                views=filter_plugins(views, plugins),\n                modules=filter_plugins(modules, plugins),\n                extend=extend,\n                include=include,\n                privates=filter_plugins(privates, plugins),\n                statics=filter_plugins(statics, plugins),\n                languages=languages,\n                crontab=crontab,\n                plugins=plugins)\n\n\ndef delete_plugin():\n    """ Object delete handler """\n    app = request.args(0)\n    plugin = request.args(1)\n    plugin_name = \'plugin_\' + plugin\n\n    dialog = FORM.confirm(\n        T(\'Delete\'),\n        {T(\'Cancel\'): URL(\'design\', args=app)})\n\n    if dialog.accepted:\n        try:\n            for folder in [\'models\', \'views\', \'controllers\', \'static\', \'modules\', \'private\']:\n                path = os.path.join(apath(app, r=request), folder)\n                for item in os.listdir(path):\n                    if item.rsplit(\'.\', 1)[0] == plugin_name:\n                        filename = os.path.join(path, item)\n                        if os.path.isdir(filename):\n                            shutil.rmtree(filename)\n                        else:\n                            os.unlink(filename)\n            session.flash = T(\'plugin "%(plugin)s" deleted\',\n                              dict(plugin=plugin))\n        except Exception:\n            session.flash = T(\'unable to delete file plugin "%(plugin)s"\',\n                              dict(plugin=plugin))\n        redirect(URL(\'design\', args=request.args(0), anchor=request.vars.id2))\n    return dict(dialog=dialog, plugin=plugin)\n\n\ndef plugin():\n    """ Application design handler """\n    app = get_app()\n    plugin = request.args(1)\n\n    if not response.flash and app == request.application:\n        msg = T(\'ATTENTION: you cannot edit the running application!\')\n        response.flash = msg\n\n    # If we have only pyc files it means that\n    # we cannot design\n    if os.path.exists(apath(\'%s/compiled\' % app, r=request)):\n        session.flash = \\\n            T(\'application is compiled and cannot be designed\')\n        redirect(URL(\'site\'))\n\n    # Get all models\n    models = listdir(apath(\'%s/models/\' % app, r=request), \'.*\\.py$\')\n    models = [x.replace(\'\\\\\', \'/\') for x in models]\n    defines = {}\n    for m in models:\n        data = safe_read(apath(\'%s/models/%s\' % (app, m), r=request))\n        defines[m] = regex_tables.findall(data)\n        defines[m].sort()\n\n    # Get all controllers\n    controllers = sorted(\n        listdir(apath(\'%s/controllers/\' % app, r=request), \'.*\\.py$\'))\n    controllers = [x.replace(\'\\\\\', \'/\') for x in controllers]\n    functions = {}\n    for c in controllers:\n        data = safe_read(apath(\'%s/controllers/%s\' % (app, c), r=request))\n        items = find_exposed_functions(data)\n        functions[c] = items\n\n    # Get all views\n    views = sorted(\n        listdir(apath(\'%s/views/\' % app, r=request), \'[\\w/\\-]+\\.\\w+$\'))\n    views = [x.replace(\'\\\\\', \'/\') for x in views]\n    extend = {}\n    include = {}\n    for c in views:\n        data = safe_read(apath(\'%s/views/%s\' % (app, c), r=request))\n        items = regex_extend.findall(data)\n        if items:\n            extend[c] = items[0][1]\n\n        items = regex_include.findall(data)\n        include[c] = [i[1] for i in items]\n\n    # Get all modules\n    modules = listdir(apath(\'%s/modules/\' % app, r=request), \'.*\\.py$\')\n    modules = modules = [x.replace(\'\\\\\', \'/\') for x in modules]\n    modules.sort()\n\n    # Get all private files\n    privates = listdir(apath(\'%s/private/\' % app, r=request), \'[^\\.#].*\')\n    privates = [x.replace(\'\\\\\', \'/\') for x in privates]\n    privates.sort()\n\n    # Get all static files\n    statics = listdir(apath(\'%s/static/\' % app, r=request), \'[^\\.#].*\',\n                      maxnum = MAXNFILES)\n    statics = [x.replace(os.path.sep, \'/\') for x in statics]\n    statics.sort()\n\n    # Get all languages\n    languages = sorted([lang + \'.py\' for lang, info in\n                        T.get_possible_languages_info().iteritems()\n                        if info[2] != 0])  # info[2] is langfile_mtime:\n                                    # get only existed files\n\n    #Get crontab\n    crontab = apath(\'%s/cron/crontab\' % app, r=request)\n    if not os.path.exists(crontab):\n        safe_write(crontab, \'#crontab\')\n\n    def filter_plugins(items):\n        regex = re.compile(\'^plugin_\' + plugin + \'(/.*|\\..*)?$\')\n        return [item for item in items if item and regex.match(item)]\n\n    return dict(app=app,\n                models=filter_plugins(models),\n                defines=defines,\n                controllers=filter_plugins(controllers),\n                functions=functions,\n                views=filter_plugins(views),\n                modules=filter_plugins(modules),\n                extend=extend,\n                include=include,\n                privates=filter_plugins(privates),\n                statics=filter_plugins(statics),\n                languages=languages,\n                crontab=crontab)\n\ndef create_file():\n    """ Create files handler """\n    if request.vars and not request.vars.token == session.token:\n        redirect(URL(\'logout\'))\n    try:\n        anchor = \'#\' + request.vars.id if request.vars.id else \'\'\n        if request.vars.app:\n            app = get_app(request.vars.app)\n            path = abspath(request.vars.location)\n        else:\n            if request.vars.dir:\n            \trequest.vars.location += request.vars.dir + \'/\'\n            app = get_app(name=request.vars.location.split(\'/\')[0])\n            path = apath(request.vars.location, r=request)\n        filename = re.sub(\'[^\\w./-]+\', \'_\', request.vars.filename)\n        if path[-7:] == \'/rules/\':\n            # Handle plural rules files\n            if len(filename) == 0:\n                raise SyntaxError\n            if not filename[-3:] == \'.py\':\n                filename += \'.py\'\n            lang = re.match(\'^plural_rules-(.*)\\.py$\', filename).group(1)\n            langinfo = read_possible_languages(apath(app, r=request))[lang]\n            text = dedent("""\n                   #!/usr/bin/env python\n                   # -*- coding: utf8 -*-\n                   # Plural-Forms for %(lang)s (%(langname)s)\n\n                   nplurals=2  # for example, English language has 2 forms:\n                               # 1 singular and 1 plural\n\n                   # Determine plural_id for number *n* as sequence of positive\n                   # integers: 0,1,...\n                   # NOTE! For singular form ALWAYS return plural_id = 0\n                   get_plural_id = lambda n: int(n != 1)\n\n                   # Construct and return plural form of *word* using\n                   # *plural_id* (which ALWAYS>0). This function will be executed\n                   # for words (or phrases) not found in plural_dict dictionary.\n                   # By default this function simply returns word in singular:\n                   construct_plural_form = lambda word, plural_id: word\n                   """)[1:] % dict(lang=langinfo[0], langname=langinfo[1])\n\n        elif path[-11:] == \'/languages/\':\n            # Handle language files\n            if len(filename) == 0:\n                raise SyntaxError\n            if not filename[-3:] == \'.py\':\n                filename += \'.py\'\n            path = os.path.join(apath(app, r=request), \'languages\', filename)\n            if not os.path.exists(path):\n                safe_write(path, \'\')\n            # create language xx[-yy].py file:\n            findT(apath(app, r=request), filename[:-3])\n            session.flash = T(\'language file "%(filename)s" created/updated\',\n                              dict(filename=filename))\n            redirect(request.vars.sender + anchor)\n\n        elif path[-8:] == \'/models/\':\n            # Handle python models\n            if not filename[-3:] == \'.py\':\n                filename += \'.py\'\n\n            if len(filename) == 3:\n                raise SyntaxError\n\n            text = \'# coding: utf8\\n\'\n\n        elif path[-13:] == \'/controllers/\':\n            # Handle python controllers\n            if not filename[-3:] == \'.py\':\n                filename += \'.py\'\n\n            if len(filename) == 3:\n                raise SyntaxError\n\n            text = \'# coding: utf8\\n# %s\\ndef index(): return dict(message="hello from %s")\'\n            text = text % (T(\'try something like\'), filename)\n\n        elif path[-7:] == \'/views/\':\n            if request.vars.plugin and not filename.startswith(\'plugin_%s/\' % request.vars.plugin):\n                filename = \'plugin_%s/%s\' % (request.vars.plugin, filename)\n            # Handle template (html) views\n            if filename.find(\'.\') < 0:\n                filename += \'.html\'\n            extension = filename.split(\'.\')[-1].lower()\n\n            if len(filename) == 5:\n                raise SyntaxError\n\n            msg = T(\n                \'This is the %(filename)s template\', dict(filename=filename))\n            if extension == \'html\':\n                text = dedent("""\n                   {{extend \'layout.html\'}}\n                   <h1>%s</h1>\n                   {{=BEAUTIFY(response._vars)}}""" % msg)[1:]\n            else:\n                generic = os.path.join(path, \'generic.\' + extension)\n                if os.path.exists(generic):\n                    text = read_file(generic)\n                else:\n                    text = \'\'\n\n        elif path[-9:] == \'/modules/\':\n            if request.vars.plugin and not filename.startswith(\'plugin_%s/\' % request.vars.plugin):\n                filename = \'plugin_%s/%s\' % (request.vars.plugin, filename)\n            # Handle python module files\n            if not filename[-3:] == \'.py\':\n                filename += \'.py\'\n\n            if len(filename) == 3:\n                raise SyntaxError\n\n            text = dedent("""\n                   #!/usr/bin/env python\n                   # coding: utf8\n                   from gluon import *\\n""")[1:]\n\n        elif (path[-8:] == \'/static/\') or (path[-9:] == \'/private/\'):\n            if (request.vars.plugin and \n                not filename.startswith(\'plugin_%s/\' % request.vars.plugin)):\n                filename = \'plugin_%s/%s\' % (request.vars.plugin, filename)\n            text = \'\'\n\n        else:\n            redirect(request.vars.sender + anchor)\n\n        full_filename = os.path.join(path, filename)\n        dirpath = os.path.dirname(full_filename)\n\n        if not os.path.exists(dirpath):\n            os.makedirs(dirpath)\n\n        if os.path.exists(full_filename):\n            raise SyntaxError\n\n        safe_write(full_filename, text)\n        log_progress(app, \'CREATE\', filename)\n        if request.vars.dir:\n            result = T(\'file "%(filename)s" created\',\n                          dict(filename=full_filename[len(path):]))\n        else:\n            session.flash = T(\'file "%(filename)s" created\',\n                          dict(filename=full_filename[len(path):]))\n        vars = {}\n        if request.vars.id:\n            vars[\'id\'] = request.vars.id\n        if request.vars.app:\n            vars[\'app\'] = request.vars.app\n        redirect(URL(\'edit\',\n                 args=[os.path.join(request.vars.location, filename)], vars=vars))\n\n    except Exception, e:\n        if not isinstance(e, HTTP):\n            session.flash = T(\'cannot create file\')\n\n    if request.vars.dir:\n        response.flash = result\n        response.headers[\'web2py-component-content\'] = \'append\'\n        response.headers[\'web2py-component-command\'] = """\n            $.web2py.invalidate(\'#files_menu\');\n            load_file(\'%s\');\n            $.web2py.enableElement($(\'#form form\').find($.web2py.formInputClickSelector));\n        """ % URL(\'edit\', args=[app,request.vars.dir,filename])\n        return \'\'\n    else:\n    \tredirect(request.vars.sender + anchor)\n\n\ndef listfiles(app, dir, regexp=\'.*\\.py$\'):\n\tfiles = sorted(\n         listdir(apath(\'%(app)s/%(dir)s/\' % {\'app\':app, \'dir\':dir}, r=request), regexp))\n\tfiles = [x.replace(\'\\\\\', \'/\') for x in files if not x.endswith(\'.bak\')]\n\treturn files\n      \ndef editfile(path,file,vars={}, app = None):\n\targs=(path,file) if \'app\' in vars else (app,path,file)\n\turl = URL(\'edit\', args=args, vars=vars)\n\treturn A(file, _class=\'editor_filelink\', _href=url, _style=\'word-wrap: nowrap;\')\n      \ndef files_menu():\n\tapp = request.vars.app or \'welcome\'\n\tdirs=[{\'name\':\'models\', \'reg\':\'.*\\.py$\'},\n      \t  {\'name\':\'controllers\', \'reg\':\'.*\\.py$\'},\n      \t  {\'name\':\'views\', \'reg\':\'[\\w/\\-]+(\\.\\w+)+$\'},\n      \t  {\'name\':\'modules\', \'reg\':\'.*\\.py$\'},\n      \t  {\'name\':\'static\', \'reg\': \'[^\\.#].*\'}]\n\tresult_files = []\n\tfor dir in dirs:\n\t\tresult_files.append(TAG[\'\'](LI(dir[\'name\'], _class="nav-header component", _onclick="collapse(\'" + dir[\'name\'] + "_files\');"),\n            \t\t\t  LI(UL(*[LI(editfile(dir[\'name\'], f, dict(id=dir[\'name\'] + f.replace(\'.\',\'__\')), app), _style="overflow:hidden", _id=dir[\'name\']+"__"+f.replace(\'.\',\'__\')) \n            \t\t\t  \t\tfor f in listfiles(app, dir[\'name\'], regexp=dir[\'reg\'])], \n            \t\t\t  \t\t_class="nav nav-list small-font"),\n            \t\t\t  \t _id=dir[\'name\'] + \'_files\', _style="display: none;"))) \n\treturn dict(result_files = result_files)\n\t\ndef upload_file():\n    """ File uploading handler """\n    if request.vars and not request.vars.token == session.token:\n        redirect(URL(\'logout\'))\n    try:\n        filename = None\n        app = get_app(name=request.vars.location.split(\'/\')[0])\n        path = apath(request.vars.location, r=request)\n\n        if request.vars.filename:\n            filename = re.sub(\'[^\\w\\./]+\', \'_\', request.vars.filename)\n        else:\n            filename = os.path.split(request.vars.file.filename)[-1]\n\n        if path[-8:] == \'/models/\' and not filename[-3:] == \'.py\':\n            filename += \'.py\'\n\n        if path[-9:] == \'/modules/\' and not filename[-3:] == \'.py\':\n            filename += \'.py\'\n\n        if path[-13:] == \'/controllers/\' and not filename[-3:] == \'.py\':\n            filename += \'.py\'\n\n        if path[-7:] == \'/views/\' and not filename[-5:] == \'.html\':\n            filename += \'.html\'\n\n        if path[-11:] == \'/languages/\' and not filename[-3:] == \'.py\':\n            filename += \'.py\'\n\n        filename = os.path.join(path, filename)\n        dirpath = os.path.dirname(filename)\n\n        if not os.path.exists(dirpath):\n            os.makedirs(dirpath)\n\n        data = request.vars.file.file.read()\n        lineno = count_lines(data)\n        safe_write(filename, data, \'wb\')\n        log_progress(app, \'UPLOAD\', filename, lineno)\n        session.flash = T(\'file "%(filename)s" uploaded\',\n                          dict(filename=filename[len(path):]))\n    except Exception:\n        if filename:\n            d = dict(filename=filename[len(path):])\n        else:\n            d = dict(filename=\'unkown\')\n        session.flash = T(\'cannot upload file "%(filename)s"\', d)\n\n    redirect(request.vars.sender)\n\n\ndef errors():\n    """ Error handler """\n    import operator\n    import os\n    import pickle\n    import hashlib\n\n    app = get_app()\n    if is_gae:\n        method = \'dbold\' if (\'old\' in\n                     (request.args(1) or \'\')) else \'dbnew\'\n    else:\n        method = request.args(1) or \'new\'\n    db_ready = {}\n    db_ready[\'status\'] = get_ticket_storage(app)\n    db_ready[\'errmessage\'] = T(\n        "No ticket_storage.txt found under /private folder")\n    db_ready[\'errlink\'] = "http://web2py.com/books/default/chapter/29/13#Collecting-tickets"\n\n    if method == \'new\':\n        errors_path = apath(\'%s/errors\' % app, r=request)\n\n        delete_hashes = []\n        for item in request.vars:\n            if item[:7] == \'delete_\':\n                delete_hashes.append(item[7:])\n\n        hash2error = dict()\n\n        for fn in listdir(errors_path, \'^[a-fA-F0-9.\\-]+$\'):\n            fullpath = os.path.join(errors_path, fn)\n            if not os.path.isfile(fullpath):\n                continue\n            try:\n                fullpath_file = open(fullpath, \'r\')\n                try:\n                    error = pickle.load(fullpath_file)\n                finally:\n                    fullpath_file.close()\n            except IOError:\n                continue\n            except EOFError:\n                continue\n\n            hash = hashlib.md5(error[\'traceback\']).hexdigest()\n\n            if hash in delete_hashes:\n                os.unlink(fullpath)\n            else:\n                try:\n                    hash2error[hash][\'count\'] += 1\n                except KeyError:\n                    error_lines = error[\'traceback\'].split("\\n")\n                    last_line = error_lines[-2] if len(error_lines)>1 else \'unknown\'\n                    error_causer = os.path.split(error[\'layer\'])[1]\n                    hash2error[hash] = dict(count=1, pickel=error,\n                                            causer=error_causer,\n                                            last_line=last_line,\n                                            hash=hash, ticket=fn)\n\n        decorated = [(x[\'count\'], x) for x in hash2error.values()]\n        decorated.sort(key=operator.itemgetter(0), reverse=True)\n\n        return dict(errors=[x[1] for x in decorated], app=app, method=method, db_ready=db_ready)\n\n    elif method == \'dbnew\':\n        errors_path = apath(\'%s/errors\' % app, r=request)\n        tk_db, tk_table = get_ticket_storage(app)\n\n        delete_hashes = []\n        for item in request.vars:\n            if item[:7] == \'delete_\':\n                delete_hashes.append(item[7:])\n\n        hash2error = dict()\n\n        for fn in tk_db(tk_table.id > 0).select():\n            try:\n                error = pickle.loads(fn.ticket_data)\n                hash = hashlib.md5(error[\'traceback\']).hexdigest()\n\n                if hash in delete_hashes:\n                    tk_db(tk_table.id == fn.id).delete()\n                    tk_db.commit()\n                else:\n                    try:\n                        hash2error[hash][\'count\'] += 1\n                    except KeyError:\n                        error_lines = error[\'traceback\'].split("\\n")\n                        last_line = error_lines[-2]\n                        error_causer = os.path.split(error[\'layer\'])[1]\n                        hash2error[hash] = dict(count=1,\n                            pickel=error, causer=error_causer,\n                            last_line=last_line, hash=hash,\n                            ticket=fn.ticket_id)\n            except AttributeError, e:\n                tk_db(tk_table.id == fn.id).delete()\n                tk_db.commit()\n\n        decorated = [(x[\'count\'], x) for x in hash2error.values()]\n        decorated.sort(key=operator.itemgetter(0), reverse=True)\n        return dict(errors=[x[1] for x in decorated], app=app,\n                    method=method, db_ready=db_ready)\n\n    elif method == \'dbold\':\n        tk_db, tk_table = get_ticket_storage(app)\n        for item in request.vars:\n            if item[:7] == \'delete_\':\n                tk_db(tk_table.ticket_id == item[7:]).delete()\n                tk_db.commit()\n        tickets_ = tk_db(tk_table.id > 0).select(tk_table.ticket_id,\n            tk_table.created_datetime,\n            orderby=~tk_table.created_datetime)\n        tickets = [row.ticket_id for row in tickets_]\n        times = dict([(row.ticket_id, row.created_datetime) for\n            row in tickets_])\n        return dict(app=app, tickets=tickets, method=method,\n                    times=times, db_ready=db_ready)\n\n    else:\n        for item in request.vars:\n            # delete_all rows doesn\'t contain any ticket\n            # Remove anything else as requested\n            if item[:7] == \'delete_\' and (not item == "delete_all}"):\n                os.unlink(apath(\'%s/errors/%s\' % (app, item[7:]), r=request))\n        func = lambda p: os.stat(apath(\'%s/errors/%s\' %\n                                       (app, p), r=request)).st_mtime\n        tickets = sorted(\n            listdir(apath(\'%s/errors/\' % app, r=request), \'^\\w.*\'),\n            key=func,\n            reverse=True)\n\n        return dict(app=app, tickets=tickets, method=method, db_ready=db_ready)\n\n\ndef get_ticket_storage(app):\n    private_folder = apath(\'%s/private\' % app, r=request)\n    ticket_file = os.path.join(private_folder, \'ticket_storage.txt\')\n    if os.path.exists(ticket_file):\n        db_string = open(ticket_file).read()\n        db_string = db_string.strip().replace(\'\\r\', \'\').replace(\'\\n\', \'\')\n    elif is_gae:\n        # use Datastore as fallback if there is no ticket_file\n        db_string = "google:datastore"\n    else:\n        return False\n    tickets_table = \'web2py_ticket\'\n    tablename = tickets_table + \'_\' + app\n    db_path = apath(\'%s/databases\' % app, r=request)\n    ticketsdb = DAL(db_string, folder=db_path, auto_import=True)\n    if not ticketsdb.get(tablename):\n        table = ticketsdb.define_table(\n            tablename,\n            Field(\'ticket_id\', length=100),\n            Field(\'ticket_data\', \'text\'),\n            Field(\'created_datetime\', \'datetime\'),\n        )\n    return ticketsdb, ticketsdb.get(tablename)\n\n\ndef make_link(path):\n    """ Create a link from a path """\n    tryFile = path.replace(\'\\\\\', \'/\')\n\n    if os.path.isabs(tryFile) and os.path.isfile(tryFile):\n        (folder, filename) = os.path.split(tryFile)\n        (base, ext) = os.path.splitext(filename)\n        app = get_app()\n\n        editable = {\'controllers\': \'.py\', \'models\': \'.py\', \'views\': \'.html\'}\n        for key in editable.keys():\n            check_extension = folder.endswith("%s/%s" % (app, key))\n            if ext.lower() == editable[key] and check_extension:\n                return A(\'"\' + tryFile + \'"\',\n                         _href=URL(r=request,\n                         f=\'edit/%s/%s/%s\' % (app, key, filename))).xml()\n    return \'\'\n\n\ndef make_links(traceback):\n    """ Make links using the given traceback """\n\n    lwords = traceback.split(\'"\')\n\n    # Making the short circuit compatible with <= python2.4\n    result = (len(lwords) != 0) and lwords[0] or \'\'\n\n    i = 1\n\n    while i < len(lwords):\n        link = make_link(lwords[i])\n\n        if link == \'\':\n            result += \'"\' + lwords[i]\n        else:\n            result += link\n\n            if i + 1 < len(lwords):\n                result += lwords[i + 1]\n                i = i + 1\n\n        i = i + 1\n\n    return result\n\n\nclass TRACEBACK(object):\n    """ Generate the traceback """\n\n    def __init__(self, text):\n        """ TRACEBACK constructor """\n\n        self.s = make_links(CODE(text).xml())\n\n    def xml(self):\n        """ Returns the xml """\n\n        return self.s\n\n\ndef ticket():\n    """ Ticket handler """\n\n    if len(request.args) != 2:\n        session.flash = T(\'invalid ticket\')\n        redirect(URL(\'site\'))\n\n    app = get_app()\n    myversion = request.env.web2py_version\n    ticket = request.args[1]\n    e = RestrictedError()\n    e.load(request, app, ticket)\n\n    return dict(app=app,\n                ticket=ticket,\n                output=e.output,\n                traceback=(e.traceback and TRACEBACK(e.traceback)),\n                snapshot=e.snapshot,\n                code=e.code,\n                layer=e.layer,\n                myversion=myversion)\n\n\ndef ticketdb():\n    """ Ticket handler """\n\n    if len(request.args) != 2:\n        session.flash = T(\'invalid ticket\')\n        redirect(URL(\'site\'))\n\n    app = get_app()\n    myversion = request.env.web2py_version\n    ticket = request.args[1]\n    e = RestrictedError()\n    request.tickets_db = get_ticket_storage(app)[0]\n    e.load(request, app, ticket)\n    response.view = \'default/ticket.html\'\n    return dict(app=app,\n                ticket=ticket,\n                output=e.output,\n                traceback=(e.traceback and TRACEBACK(e.traceback)),\n                snapshot=e.snapshot,\n                code=e.code,\n                layer=e.layer,\n                myversion=myversion)\n\n\ndef error():\n    """ Generate a ticket (for testing) """\n    raise RuntimeError(\'admin ticket generator at your service\')\n\n\ndef update_languages():\n    """ Update available languages """\n\n    app = get_app()\n    update_all_languages(apath(app, r=request))\n    session.flash = T(\'Language files (static strings) updated\')\n    redirect(URL(\'design\', args=app, anchor=\'languages\'))\n\n\ndef user():\n    if MULTI_USER_MODE:\n        if not db(db.auth_user).count():\n            auth.settings.registration_requires_approval = False\n        return dict(form=auth())\n    else:\n        return dict(form=T("Disabled"))\n\n\ndef reload_routes():\n    """ Reload routes.py """\n    import gluon.rewrite\n    gluon.rewrite.load()\n    redirect(URL(\'site\'))\n\n\ndef manage_students():\n    if not (MULTI_USER_MODE and is_manager()):\n        session.flash = T(\'Not Authorized\')\n        redirect(URL(\'site\'))\n    db.auth_user.registration_key.writable = True\n    grid = SQLFORM.grid(db.auth_user)\n    return locals()\n\n\ndef bulk_register():\n    if not (MULTI_USER_MODE and is_manager()):\n        session.flash = T(\'Not Authorized\')\n        redirect(URL(\'site\'))\n    form = SQLFORM.factory(Field(\'emails\', \'text\'))\n    if form.process().accepted:\n        emails = [x.strip() for x in form.vars.emails.split(\'\\n\') if x.strip()]\n        n = 0\n        for email in emails:\n            if not db.auth_user(email=email):\n                n += db.auth_user.insert(email=email) and 1 or 0\n        session.flash = T(\'%s students registered\', n)\n        redirect(URL(\'site\'))\n    return locals()\n\n### Begin experimental stuff need fixes:\n# 1) should run in its own process - cannot os.chdir\n# 2) should not prompt user at console\n# 3) should give option to force commit and not reuqire manual merge\n\n\ndef git_pull():\n    """ Git Pull handler """\n    app = get_app()\n    if not have_git:\n        session.flash = GIT_MISSING\n        redirect(URL(\'site\'))\n    dialog = FORM.confirm(T(\'Pull\'),\n                          {T(\'Cancel\'): URL(\'site\')})\n    if dialog.accepted:\n        try:\n            repo = git.Repo(os.path.join(apath(r=request), app))\n            origin = repo.remotes.origin\n            origin.fetch()\n            origin.pull()\n            session.flash = T("Application updated via git pull")\n            redirect(URL(\'site\'))\n\n        except git.CheckoutError:\n            session.flash = T("Pull failed, certain files could not be checked out. Check logs for details.")\n            redirect(URL(\'site\'))\n        except git.UnmergedEntriesError:\n            session.flash = T("Pull is not possible because you have unmerged files. Fix them up in the work tree, and then try again.")\n            redirect(URL(\'site\'))\n        except git.GitCommandError:\n            session.flash = T(\n                "Pull failed, git exited abnormally. See logs for details.")\n            redirect(URL(\'site\'))\n        except AssertionError:\n            session.flash = T("Pull is not possible because you have unmerged files. Fix them up in the work tree, and then try again.")\n            redirect(URL(\'site\'))\n    elif \'cancel\' in request.vars:\n        redirect(URL(\'site\'))\n    return dict(app=app, dialog=dialog)\n\n\ndef git_push():\n    """ Git Push handler """\n    app = get_app()\n    if not have_git:\n        session.flash = GIT_MISSING\n        redirect(URL(\'site\'))\n    form = SQLFORM.factory(Field(\'changelog\', requires=IS_NOT_EMPTY()))\n    form.element(\'input[type=submit]\')[\'_value\'] = T(\'Push\')\n    form.add_button(T(\'Cancel\'), URL(\'site\'))\n    form.process()\n    if form.accepted:\n        try:\n            repo = git.Repo(os.path.join(apath(r=request), app))\n            index = repo.index\n            index.add([apath(r=request) + app + \'/*\'])\n            new_commit = index.commit(form.vars.changelog)\n            origin = repo.remotes.origin\n            origin.push()\n            session.flash = T(\n                "Git repo updated with latest application changes.")\n            redirect(URL(\'site\'))\n        except git.UnmergedEntriesError:\n            session.flash = T("Push failed, there are unmerged entries in the cache. Resolve merge issues manually and try again.")\n            redirect(URL(\'site\'))\n    return dict(app=app, form=form)\n\ndef plugins():\n    app = request.args(0)\n    from serializers import loads_json\n    if not session.plugins:\n        try:\n            rawlist = urllib.urlopen("http://www.web2pyslices.com/" +\n                                     "public/api.json/action/list/content/Package?package" +\n                                     "_type=plugin&search_index=false").read()\n            session.plugins = loads_json(rawlist)\n        except:\n            response.flash = T(\'Unable to download the list of plugins\')\n            session.plugins = []\n    return dict(plugins=session.plugins["results"], app=request.args(0))\n\ndef install_plugin():\n    app = request.args(0)\n    source = request.vars.source\n    plugin = request.vars.plugin\n    if not (source and app):\n        raise HTTP(500, T("Invalid request"))\n    form = SQLFORM.factory()\n    result = None\n    if form.process().accepted:\n        # get w2p plugin\n        if "web2py.plugin." in source:\n            filename = "web2py.plugin.%s.w2p" % \\\n                source.split("web2py.plugin.")[-1].split(".w2p")[0]\n        else:\n            filename = "web2py.plugin.%s.w2p" % cleanpath(plugin)\n        if plugin_install(app, urllib.urlopen(source),\n                          request, filename):\n            session.flash = T(\'New plugin installed: %s\', filename)\n        else:\n            session.flash = \\\n                T(\'unable to install plugin "%s"\', filename)\n        redirect(URL(f="plugins", args=[app,]))\n    return dict(form=form, app=app, plugin=plugin, source=source)\n\n\nresponse._vars=response._caller(edit)\n'
p7
sS'snapshot'
p8
(dp9
S'exception'
p10
(dp11
S'__getslice__'
p12
S"<method-wrapper '__getslice__' of exceptions.UnicodeDecodeError object>"
p13
sS'encoding'
p14
S"'utf8'"
p15
sS'__str__'
p16
S"<method-wrapper '__str__' of exceptions.UnicodeDecodeError object>"
p17
sS'__reduce__'
p18
S'<built-in method __reduce__ of exceptions.UnicodeDecodeError object>'
p19
sS'__dict__'
p20
S'{}'
p21
sS'__sizeof__'
p22
S'<built-in method __sizeof__ of exceptions.UnicodeDecodeError object>'
p23
sS'__init__'
p24
S"<method-wrapper '__init__' of exceptions.UnicodeDecodeError object>"
p25
sS'__setattr__'
p26
S"<method-wrapper '__setattr__' of exceptions.UnicodeDecodeError object>"
p27
sS'__reduce_ex__'
p28
S'<built-in method __reduce_ex__ of exceptions.UnicodeDecodeError object>'
p29
sS'end'
p30
S'15'
p31
sS'__new__'
p32
S'<built-in method __new__ of type object>'
p33
sS'__format__'
p34
S'<built-in method __format__ of exceptions.UnicodeDecodeError object>'
p35
sS'__class__'
p36
S"<type 'exceptions.UnicodeDecodeError'>"
p37
sS'start'
p38
S'14'
p39
sS'__doc__'
p40
S"'Unicode decoding error.'"
p41
sS'object'
p42
S"'\\x00\\x00\\x01\\x00\\x01\\x00\\x10\\x10\\x02\\x00\\x00\\x00\\x00\\x00\\xb0\\x00\\x00\\x00\\x16\\x00\\x00\\x00(\\x00\\x00\\x00\\x10\\x00\\x00\\x00 \\x00\\x00\\x00\\x01\\x00\\x01\\x00\\x00\\x00\\x00\\x00@\\x00\\x00\\x00\\x00\\x00...\\x00\\x821\\x00\\x00\\xba\\xd6\\x00\\x00\\xba\\xd6\\x00\\x00\\xc61\\x00\\x00\\xff\\xff\\x00\\x00\\xd6\\x17\\x00\\x00\\xaa\\xf7\\x00\\x00\\xabq\\x00\\x00\\xab\\xb6\\x00\\x00\\xaa\\xd6\\x00\\x00\\xab1\\x00\\x00\\xff\\xff\\x00\\x00'"
p43
sS'__getitem__'
p44
S"<method-wrapper '__getitem__' of exceptions.UnicodeDecodeError object>"
p45
sS'__setstate__'
p46
S'<built-in method __setstate__ of exceptions.UnicodeDecodeError object>'
p47
sS'__getattribute__'
p48
S"<method-wrapper '__getattribute__' of exceptions.UnicodeDecodeError object>"
p49
sS'args'
p50
S"('utf8', '\\x00\\x00\\x01\\x00\\x01\\x00\\x10\\x10\\x02\\x00\\x00\\x00\\x00\\x00\\xb0\\x00\\x00\\x00\\x16\\x00\\x00\\x00(\\x00\\x00\\x00\\x10\\x00\\x00\\x00 \\x00\\x00\\x00\\x01\\x00\\x01\\x00\\x00\\x00\\x00\\x00@\\x00\\x00\\x00\\x00\\x00...\\x00\\x821\\x00\\x00\\xba\\xd6\\x00\\x00\\xba\\xd6\\x00\\x00\\xc61\\x00\\x00\\xff\\xff\\x00\\x00\\xd6\\x17\\x00\\x00\\xaa\\xf7\\x00\\x00\\xabq\\x00\\x00\\xab\\xb6\\x00\\x00\\xaa\\xd6\\x00\\x00\\xab1\\x00\\x00\\xff\\xff\\x00\\x00', 14, 15, 'invalid start byte')"
p51
sS'reason'
p52
S"'invalid start byte'"
p53
sS'__subclasshook__'
p54
S'<built-in method __subclasshook__ of type object>'
p55
sS'__unicode__'
p56
S'<built-in method __unicode__ of exceptions.UnicodeDecodeError object>'
p57
sS'__delattr__'
p58
S"<method-wrapper '__delattr__' of exceptions.UnicodeDecodeError object>"
p59
sS'__repr__'
p60
S"<method-wrapper '__repr__' of exceptions.UnicodeDecodeError object>"
p61
sS'__hash__'
p62
S"<method-wrapper '__hash__' of exceptions.UnicodeDecodeError object>"
p63
ssS'evalue'
p64
S"'utf8' codec can't decode byte 0xb0 in position 14: invalid start byte"
p65
sS'request'
p66
cgluon.html
XML_unpickle
p67
(S's\xf7d\x00\x00<div><table><tr><td style="font-weight:bold;vertical-align:top;">ajax</td><td style="vertical-align:top;">:</td><td><div>True</div></td></tr><tr><td style="font-weight:bold;vertical-align:top;">application</td><td style="vertical-align:top;">:</td><td><div>admin</div></td></tr><tr><td style="font-weight:bold;vertical-align:top;">args</td><td style="vertical-align:top;">:</td><td><div><table><tr><td><div>Prepratilipi</div></td></tr><tr><td><div>static</div></td></tr><tr><td><div>images</div></td></tr><tr><td><div>favicon.ico</div></td></tr></table></div></td></tr><tr><td style="font-weight:bold;vertical-align:top;">cid</td><td style="vertical-align:top;">:</td><td><div>None</div></td></tr><tr><td style="font-weight:bold;vertical-align:top;">client</td><td style="vertical-align:top;">:</td><td><div>127.0.0.1</div></td></tr><tr><td style="font-weight:bold;vertical-align:top;">controller</td><td style="vertical-align:top;">:</td><td><div>default</div></td></tr><tr><td style="font-weight:bold;vertical-align:top;">cookies</td><td style="vertical-align:top;">:</td><td><div><table><tr><td style="font-weight:bold;vertical-align:top;">session_id_admin</td><td style="vertical-align:top;">:</td><td><div>127.0.0.1-e27d0521-cd3a-483f-bf40-655dca20b04d<table><tr><td style="font-weight:bold;vertical-align:top;">comment</td><td style="vertical-align:top;">:</td><td><div></div></td></tr><tr><td style="font-weight:bold;vertical-align:top;">domain</td><td style="vertical-align:top;">:</td><td><div></div></td></tr><tr><td style="font-weight:bold;vertical-align:top;">expires</td><td style="vertical-align:top;">:</td><td><div></div></td></tr><tr><td style="font-weight:bold;vertical-align:top;">httponly</td><td style="vertical-align:top;">:</td><td><div></div></td></tr><tr><td style="font-weight:bold;vertical-align:top;">max-age</td><td style="vertical-align:top;">:</td><td><div></div></td></tr><tr><td style="font-weight:bold;vertical-align:top;">path</td><td style="vertical-align:top;">:</td><td><div></div></td></tr><tr><td style="font-weight:bold;vertical-align:top;">secure</td><td style="vertical-align:top;">:</td><td><div></div></td></tr><tr><td style="font-weight:bold;vertical-align:top;">version</td><td style="vertical-align:top;">:</td><td><div></div></td></tr></table></div></td></tr><tr><td style="font-weight:bold;vertical-align:top;">session_id_app1</td><td style="vertical-align:top;">:</td><td><div>127.0.0.1-25be69a7-6f56-4096-be66-15e642da8a6b<table><tr><td style="font-weight:bold;vertical-align:top;">comment</td><td style="vertical-align:top;">:</td><td><div></div></td></tr><tr><td style="font-weight:bold;vertical-align:top;">domain</td><td style="vertical-align:top;">:</td><td><div></div></td></tr><tr><td style="font-weight:bold;vertical-align:top;">expires</td><td style="vertical-align:top;">:</td><td><div></div></td></tr><tr><td style="font-weight:bold;vertical-align:top;">httponly</td><td style="vertical-align:top;">:</td><td><div></div></td></tr><tr><td style="font-weight:bold;vertical-align:top;">max-age</td><td style="vertical-align:top;">:</td><td><div></div></td></tr><tr><td style="font-weight:bold;vertical-align:top;">path</td><td style="vertical-align:top;">:</td><td><div></div></td></tr><tr><td style="font-weight:bold;vertical-align:top;">secure</td><td style="vertical-align:top;">:</td><td><div></div></td></tr><tr><td style="font-weight:bold;vertical-align:top;">version</td><td style="vertical-align:top;">:</td><td><div></div></td></tr></table></div></td></tr><tr><td style="font-weight:bold;vertical-align:top;">session_id_prepratilipi</td><td style="vertical-align:top;">:</td><td><div>127.0.0.1-de9b7d65-84cc-4ffd-9269-c0b431272e5c<table><tr><td style="font-weight:bold;vertical-align:top;">comment</td><td style="vertical-align:top;">:</td><td><div></div></td></tr><tr><td style="font-weight:bold;vertical-align:top;">domain</td><td style="vertical-align:top;">:</td><td><div></div></td></tr><tr><td style="font-weight:bold;vertical-align:top;">expires</td><td style="vertical-align:top;">:</td><td><div></div></td></tr><tr><td style="font-weight:bold;vertical-align:top;">httponly</td><td style="vertical-align:top;">:</td><td><div></div></td></tr><tr><td style="font-weight:bold;vertical-align:top;">max-age</td><td style="vertical-align:top;">:</td><td><div></div></td></tr><tr><td style="font-weight:bold;vertical-align:top;">path</td><td style="vertical-align:top;">:</td><td><div></div></td></tr><tr><td style="font-weight:bold;vertical-align:top;">secure</td><td style="vertical-align:top;">:</td><td><div></div></td></tr><tr><td style="font-weight:bold;vertical-align:top;">version</td><td style="vertical-align:top;">:</td><td><div></div></td></tr></table></div></td></tr><tr><td style="font-weight:bold;vertical-align:top;">session_id_welcome</td><td style="vertical-align:top;">:</td><td><div>127.0.0.1-d713e47b-2202-4997-a10b-4bb534fa2f81<table><tr><td style="font-weight:bold;vertical-align:top;">comment</td><td style="vertical-align:top;">:</td><td><div></div></td></tr><tr><td style="font-weight:bold;vertical-align:top;">domain</td><td style="vertical-align:top;">:</td><td><div></div></td></tr><tr><td style="font-weight:bold;vertical-align:top;">expires</td><td style="vertical-align:top;">:</td><td><div></div></td></tr><tr><td style="font-weight:bold;vertical-align:top;">httponly</td><td style="vertical-align:top;">:</td><td><div></div></td></tr><tr><td style="font-weight:bold;vertical-align:top;">max-age</td><td style="vertical-align:top;">:</td><td><div></div></td></tr><tr><td style="font-weight:bold;vertical-align:top;">path</td><td style="vertical-align:top;">:</td><td><div></div></td></tr><tr><td style="font-weight:bold;vertical-align:top;">secure</td><td style="vertical-align:top;">:</td><td><div></div></td></tr><tr><td style="font-weight:bold;vertical-align:top;">version</td><td style="vertical-align:top;">:</td><td><div></div></td></tr></table></div></td></tr></table></div></td></tr><tr><td style="font-weight:bold;vertical-align:top;">env</td><td style="vertical-align:top;">:</td><td><div><table><tr><td style="font-weight:bold;vertical-align:top;">CONTENT_TYPE</td><td style="vertical-align:top;">:</td><td><div>application/json</div></td></tr><tr><td style="font-weight:bold;vertical-align:top;">HTTP_ACCEPT</td><td style="vertical-align:top;">:</td><td><div>application/json, text/javascript, */*; q=0.01</div></td></tr><tr><td style="font-weight:bold;vertical-align:top;">HTTP_ACCEPT_ENCODING</td><td style="vertical-align:top;">:</td><td><div>gzip, deflate</div></td></tr><tr><td style="font-weight:bold;vertical-align:top;">HTTP_ACCEPT_LANGUAGE</td><td style="vertical-align:top;">:</td><td><div>en-US,en;q=0.5</div></td></tr><tr><td style="font-weight:bold;vertical-align:top;">HTTP_CONNECTION</td><td style="vertical-align:top;">:</td><td><div>keep-alive</div></td></tr><tr><td style="font-weight:bold;vertical-align:top;">HTTP_CONTENT_TYPE</td><td style="vertical-align:top;">:</td><td><div>application/json</div></td></tr><tr><td style="font-weight:bold;vertical-align:top;">HTTP_COOKIE</td><td style="vertical-align:top;">:</td><td><div>session_id_welcome=127.0.0.1-d713e47b-2202-4997-a10b-4bb534fa2f81; session_id_admin=127.0.0.1-e27d0521-cd3a-483f-bf40-655dca20b04d; session_id_app1=127.0.0.1-25be69a7-6f56-4096-be66-15e642da8a6b; session_id_prepratilipi=127.0.0.1-de9b7d65-84cc-4ffd-9269-c0b431272e5c</div></td></tr><tr><td style="font-weight:bold;vertical-align:top;">HTTP_HOST</td><td style="vertical-align:top;">:</td><td><div>127.0.0.1:8000</div></td></tr><tr><td style="font-weight:bold;vertical-align:top;">HTTP_REFERER</td><td style="vertical-align:top;">:</td><td><div>http://127.0.0.1:8000/admin/default/edit/Prepratilipi/static/images/favicon.ico?id=static</div></td></tr><tr><td style="font-weight:bold;vertical-align:top;">HTTP_USER_AGENT</td><td style="vertical-align:top;">:</td><td><div>Mozilla/5.0 (Windows NT 6.3; WOW64; rv:29.0) Gecko/20100101 Firefox/29.0</div></td></tr><tr><td style="font-weight:bold;vertical-align:top;">HTTP_X_REQUESTED_WITH</td><td style="vertical-align:top;">:</td><td><div>XMLHttpRequest</div></td></tr><tr><td style="font-weight:bold;vertical-align:top;">PATH_INFO</td><td style="vertical-align:top;">:</td><td><div>/admin/default/edit/Prepratilipi/static/images/favicon.ico</div></td></tr><tr><td style="font-weight:bold;vertical-align:top;">QUERY_STRING</td><td style="vertical-align:top;">:</td><td><div>id=static&amp;_=1402387652493</div></td></tr><tr><td style="font-weight:bold;vertical-align:top;">REMOTE_ADDR</td><td style="vertical-align:top;">:</td><td><div>127.0.0.1</div></td></tr><tr><td style="font-weight:bold;vertical-align:top;">REMOTE_PORT</td><td style="vertical-align:top;">:</td><td><div>54965</div></td></tr><tr><td style="font-weight:bold;vertical-align:top;">REQUEST_METHOD</td><td style="vertical-align:top;">:</td><td><div>GET</div></td></tr><tr><td style="font-weight:bold;vertical-align:top;">SCRIPT_NAME</td><td style="vertical-align:top;">:</td><td><div></div></td></tr><tr><td style="font-weight:bold;vertical-align:top;">SERVER_NAME</td><td style="vertical-align:top;">:</td><td><div>Rahul</div></td></tr><tr><td style="font-weight:bold;vertical-align:top;">SERVER_PORT</td><td style="vertical-align:top;">:</td><td><div>8000</div></td></tr><tr><td style="font-weight:bold;vertical-align:top;">SERVER_PROTOCOL</td><td style="vertical-align:top;">:</td><td><div>HTTP/1.1</div></td></tr><tr><td style="font-weight:bold;vertical-align:top;">SERVER_SOFTWARE</td><td style="vertical-align:top;">:</td><td><div>Rocket 1.2.6</div></td></tr><tr><td style="font-weight:bold;vertical-align:top;">app_folders</td><td style="vertical-align:top;">:</td><td><div>set([&#x27;C:\\\\Python27\\\\web2py\\\\applications\\\\Prepratilipi\\\\&#x27;, &#x27;C:\\\\Python27\\\\web2py\\\\applications\\\\admin\\\\&#x27;, &#x27;C:\\\\Python27\\\\web2py\\\\applications\\\\welcome\\\\&#x27;])</div></td></tr><tr><td style="font-weight:bold;vertical-align:top;">applications_parent</td><td style="vertical-align:top;">:</td><td><div>C:\\Python27\\web2py</div></td></tr><tr><td style="font-weight:bold;vertical-align:top;">cmd_args</td><td style="vertical-align:top;">:</td><td><div><table></table></div></td></tr><tr><td style="font-weight:bold;vertical-align:top;">cmd_options</td><td style="vertical-align:top;">:</td><td><div>&lt;Values at 0x36b0bc8: {&#x27;verbose&#x27;: False, &#x27;ip&#x27;: &#x27;127.0.0.1&#x27;, &#x27;debuglevel&#x27;: 30, &#x27;with_scheduler&#x27;: False, &#x27;ips&#x27;: [&#x27;fe80::c072:5ea7:a8ca:8401%3&#x27;, &#x27;192.168.0.102&#x27;], &#x27;shutdown_timeout&#x27;: 5, &#x27;taskbar&#x27;: False, &#x27;with_coverage&#x27;: False, &#x27;port&#x27;: 8000, &#x27;maxthreads&#x27;: None, &#x27;softcron&#x27;: False, &#x27;server_name&#x27;: &#x27;Rahul&#x27;, &#x27;bpython&#x27;: False, &#x27;nogui&#x27;: False, &#x27;pid_filename&#x27;: &#x27;httpserver.pid&#x27;, &#x27;extcron&#x27;: False, &#x27;runcron&#x27;: False, &#x27;run_system_tests&#x27;: False, &#x27;test&#x27;: None, &#x27;folder&#x27;: &#x27;C:\\\\Python27\\\\web2py&#x27;, &#x27;config&#x27;: &#x27;&#x27;, &#x27;minthreads&#x27;: None, &#x27;shell&#x27;: None, &#x27;run&#x27;: &#x27;&#x27;, &#x27;log_filename&#x27;: &#x27;httpserver.log&#x27;, &#x27;profiler_dir&#x27;: None, &#x27;args&#x27;: [&#x27;&#x27;], &#x27;socket_timeout&#x27;: 5, &#x27;ssl_ca_certificate&#x27;: None, &#x27;scheduler&#x27;: None, &#x27;interfaces&#x27;: None, &#x27;ssl_private_key&#x27;: &#x27;&#x27;, &#x27;scheduler_groups&#x27;: None, &#x27;password&#x27;: &#x27;&lt;ask&gt;&#x27;, &#x27;request_queue_size&#x27;: 5, &#x27;ssl_certificate&#x27;: &#x27;&#x27;, &#x27;cronjob&#x27;: False, &#x27;numthreads&#x27;: None, &#x27;quiet&#x27;: False, &#x27;import_models&#x27;: False, &#x27;timeout&#x27;: 10, &#x27;plain&#x27;: False, &#x27;nobanner&#x27;: False}&gt;</div></td></tr><tr><td style="font-weight:bold;vertical-align:top;">content_type</td><td style="vertical-align:top;">:</td><td><div>application/json</div></td></tr><tr><td style="font-weight:bold;vertical-align:top;">db_sessions</td><td style="vertical-align:top;">:</td><td><div>set([])</div></td></tr><tr><td style="font-weight:bold;vertical-align:top;">debugging</td><td style="vertical-align:top;">:</td><td><div>True</div></td></tr><tr><td style="font-weight:bold;vertical-align:top;">gluon_parent</td><td style="vertical-align:top;">:</td><td><div>C:\\Python27\\web2py</div></td></tr><tr><td style="font-weight:bold;vertical-align:top;">http_accept</td><td style="vertical-align:top;">:</td><td><div>application/json, text/javascript, */*; q=0.01</div></td></tr><tr><td style="font-weight:bold;vertical-align:top;">http_accept_encoding</td><td style="vertical-align:top;">:</td><td><div>gzip, deflate</div></td></tr><tr><td style="font-weight:bold;vertical-align:top;">http_accept_language</td><td style="vertical-align:top;">:</td><td><div>en-US,en;q=0.5</div></td></tr><tr><td style="font-weight:bold;vertical-align:top;">http_connection</td><td style="vertical-align:top;">:</td><td><div>keep-alive</div></td></tr><tr><td style="font-weight:bold;vertical-align:top;">http_content_type</td><td style="vertical-align:top;">:</td><td><div>application/json</div></td></tr><tr><td style="font-weight:bold;vertical-align:top;">http_cookie</td><td style="vertical-align:top;">:</td><td><div>session_id_welcome=127.0.0.1-d713e47b-2202-4997-a10b-4bb534fa2f81; session_id_admin=127.0.0.1-e27d0521-cd3a-483f-bf40-655dca20b04d; session_id_app1=127.0.0.1-25be69a7-6f56-4096-be66-15e642da8a6b; session_id_prepratilipi=127.0.0.1-de9b7d65-84cc-4ffd-9269-c0b431272e5c</div></td></tr><tr><td style="font-weight:bold;vertical-align:top;">http_host</td><td style="vertical-align:top;">:</td><td><div>127.0.0.1:8000</div></td></tr><tr><td style="font-weight:bold;vertical-align:top;">http_referer</td><td style="vertical-align:top;">:</td><td><div>http://127.0.0.1:8000/admin/default/edit/Prepratilipi/static/images/favicon.ico?id=static</div></td></tr><tr><td style="font-weight:bold;vertical-align:top;">http_user_agent</td><td style="vertical-align:top;">:</td><td><div>Mozilla/5.0 (Windows NT 6.3; WOW64; rv:29.0) Gecko/20100101 Firefox/29.0</div></td></tr><tr><td style="font-weight:bold;vertical-align:top;">http_x_requested_with</td><td style="vertical-align:top;">:</td><td><div>XMLHttpRequest</div></td></tr><tr><td style="font-weight:bold;vertical-align:top;">is_jython</td><td style="vertical-align:top;">:</td><td><div>False</div></td></tr><tr><td style="font-weight:bold;vertical-align:top;">is_pypy</td><td style="vertical-align:top;">:</td><td><div>False</div></td></tr><tr><td style="font-weight:bold;vertical-align:top;">is_source</td><td style="vertical-align:top;">:</td><td><div>True</div></td></tr><tr><td style="font-weight:bold;vertical-align:top;">local_hosts</td><td style="vertical-align:top;">:</td><td><div><table><tr><td><div>::ffff:127.0.0.1</div></td></tr><tr><td><div>::1</div></td></tr><tr><td><div>fe80::c072:5ea7:a8ca:8401%3</div></td></tr><tr><td><div>192.168.0.102</div></td></tr><tr><td><div>127.0.0.1</div></td></tr><tr><td><div>Rahul</div></td></tr></table></div></td></tr><tr><td style="font-weight:bold;vertical-align:top;">path_info</td><td style="vertical-align:top;">:</td><td><div>/admin/default/edit/Prepratilipi/static/images/favicon.ico</div></td></tr><tr><td style="font-weight:bold;vertical-align:top;">query_string</td><td style="vertical-align:top;">:</td><td><div>id=static&amp;_=1402387652493</div></td></tr><tr><td style="font-weight:bold;vertical-align:top;">remote_addr</td><td style="vertical-align:top;">:</td><td><div>127.0.0.1</div></td></tr><tr><td style="font-weight:bold;vertical-align:top;">remote_port</td><td style="vertical-align:top;">:</td><td><div>54965</div></td></tr><tr><td style="font-weight:bold;vertical-align:top;">request_method</td><td style="vertical-align:top;">:</td><td><div>GET</div></td></tr><tr><td style="font-weight:bold;vertical-align:top;">request_uri</td><td style="vertical-align:top;">:</td><td><div>/admin/default/edit/Prepratilipi/static/images/favicon.ico?id=static&amp;_=1402387652493</div></td></tr><tr><td style="font-weight:bold;vertical-align:top;">script_name</td><td style="vertical-align:top;">:</td><td><div></div></td></tr><tr><td style="font-weight:bold;vertical-align:top;">server_name</td><td style="vertical-align:top;">:</td><td><div>Rahul</div></td></tr><tr><td style="font-weight:bold;vertical-align:top;">server_port</td><td style="vertical-align:top;">:</td><td><div>8000</div></td></tr><tr><td style="font-weight:bold;vertical-align:top;">server_protocol</td><td style="vertical-align:top;">:</td><td><div>HTTP/1.1</div></td></tr><tr><td style="font-weight:bold;vertical-align:top;">server_software</td><td style="vertical-align:top;">:</td><td><div>Rocket 1.2.6</div></td></tr><tr><td style="font-weight:bold;vertical-align:top;">web2py_path</td><td style="vertical-align:top;">:</td><td><div>C:\\Python27\\web2py</div></td></tr><tr><td style="font-weight:bold;vertical-align:top;">web2py_version</td><td style="vertical-align:top;">:</td><td><div>2.9.5-stable+timestamp.2014.03.16.02.35.39</div></td></tr><tr><td style="font-weight:bold;vertical-align:top;">wsgi.errors</td><td style="vertical-align:top;">:</td><td><div>&lt;open file &#x27;&lt;stderr&gt;&#x27;, mode &#x27;w&#x27; at 0x0000000001C2B150&gt;</div></td></tr><tr><td style="font-weight:bold;vertical-align:top;">wsgi.file_wrapper</td><td style="vertical-align:top;">:</td><td><div>&lt;class wsgiref.util.FileWrapper at 0x00000000032833A8&gt;</div></td></tr><tr><td style="font-weight:bold;vertical-align:top;">wsgi.input</td><td style="vertical-align:top;">:</td><td><div>&lt;socket._fileobject object at 0x0000000009DF65E8&gt;</div></td></tr><tr><td style="font-weight:bold;vertical-align:top;">wsgi.multiprocess</td><td style="vertical-align:top;">:</td><td><div>False</div></td></tr><tr><td style="font-weight:bold;vertical-align:top;">wsgi.multithread</td><td style="vertical-align:top;">:</td><td><div>True</div></td></tr><tr><td style="font-weight:bold;vertical-align:top;">wsgi.run_once</td><td style="vertical-align:top;">:</td><td><div>False</div></td></tr><tr><td style="font-weight:bold;vertical-align:top;">wsgi.url_scheme</td><td style="vertical-align:top;">:</td><td><div>http</div></td></tr><tr><td style="font-weight:bold;vertical-align:top;">wsgi.version</td><td style="vertical-align:top;">:</td><td><div><table><tr><td><div>1</div></td></tr><tr><td><div>0</div></td></tr></table></div></td></tr><tr><td style="font-weight:bold;vertical-align:top;">wsgi_errors</td><td style="vertical-align:top;">:</td><td><div>&lt;open file &#x27;&lt;stderr&gt;&#x27;, mode &#x27;w&#x27; at 0x0000000001C2B150&gt;</div></td></tr><tr><td style="font-weight:bold;vertical-align:top;">wsgi_file_wrapper</td><td style="vertical-align:top;">:</td><td><div>&lt;class wsgiref.util.FileWrapper at 0x00000000032833A8&gt;</div></td></tr><tr><td style="font-weight:bold;vertical-align:top;">wsgi_input</td><td style="vertical-align:top;">:</td><td><div>&lt;socket._fileobject object at 0x0000000009DF65E8&gt;</div></td></tr><tr><td style="font-weight:bold;vertical-align:top;">wsgi_multiprocess</td><td style="vertical-align:top;">:</td><td><div>False</div></td></tr><tr><td style="font-weight:bold;vertical-align:top;">wsgi_multithread</td><td style="vertical-align:top;">:</td><td><div>True</div></td></tr><tr><td style="font-weight:bold;vertical-align:top;">wsgi_run_once</td><td style="vertical-align:top;">:</td><td><div>False</div></td></tr><tr><td style="font-weight:bold;vertical-align:top;">wsgi_url_scheme</td><td style="vertical-align:top;">:</td><td><div>http</div></td></tr><tr><td style="font-weight:bold;vertical-align:top;">wsgi_version</td><td style="vertical-align:top;">:</td><td><div><table><tr><td><div>1</div></td></tr><tr><td><div>0</div></td></tr></table></div></td></tr></table></div></td></tr><tr><td style="font-weight:bold;vertical-align:top;">extension</td><td style="vertical-align:top;">:</td><td><div>html</div></td></tr><tr><td style="font-weight:bold;vertical-align:top;">folder</td><td style="vertical-align:top;">:</td><td><div>C:\\Python27\\web2py\\applications\\admin\\</div></td></tr><tr><td style="font-weight:bold;vertical-align:top;">function</td><td style="vertical-align:top;">:</td><td><div>edit</div></td></tr><tr><td style="font-weight:bold;vertical-align:top;">global_settings</td><td style="vertical-align:top;">:</td><td><div><table><tr><td style="font-weight:bold;vertical-align:top;">app_folders</td><td style="vertical-align:top;">:</td><td><div>set([&#x27;C:\\\\Python27\\\\web2py\\\\applications\\\\Prepratilipi\\\\&#x27;, &#x27;C:\\\\Python27\\\\web2py\\\\applications\\\\admin\\\\&#x27;, &#x27;C:\\\\Python27\\\\web2py\\\\applications\\\\welcome\\\\&#x27;])</div></td></tr><tr><td style="font-weight:bold;vertical-align:top;">applications_parent</td><td style="vertical-align:top;">:</td><td><div>C:\\Python27\\web2py</div></td></tr><tr><td style="font-weight:bold;vertical-align:top;">cmd_args</td><td style="vertical-align:top;">:</td><td><div><table></table></div></td></tr><tr><td style="font-weight:bold;vertical-align:top;">cmd_options</td><td style="vertical-align:top;">:</td><td><div>&lt;Values at 0x36b0bc8: {&#x27;verbose&#x27;: False, &#x27;ip&#x27;: &#x27;127.0.0.1&#x27;, &#x27;debuglevel&#x27;: 30, &#x27;with_scheduler&#x27;: False, &#x27;ips&#x27;: [&#x27;fe80::c072:5ea7:a8ca:8401%3&#x27;, &#x27;192.168.0.102&#x27;], &#x27;shutdown_timeout&#x27;: 5, &#x27;taskbar&#x27;: False, &#x27;with_coverage&#x27;: False, &#x27;port&#x27;: 8000, &#x27;maxthreads&#x27;: None, &#x27;softcron&#x27;: False, &#x27;server_name&#x27;: &#x27;Rahul&#x27;, &#x27;bpython&#x27;: False, &#x27;nogui&#x27;: False, &#x27;pid_filename&#x27;: &#x27;httpserver.pid&#x27;, &#x27;extcron&#x27;: False, &#x27;runcron&#x27;: False, &#x27;run_system_tests&#x27;: False, &#x27;test&#x27;: None, &#x27;folder&#x27;: &#x27;C:\\\\Python27\\\\web2py&#x27;, &#x27;config&#x27;: &#x27;&#x27;, &#x27;minthreads&#x27;: None, &#x27;shell&#x27;: None, &#x27;run&#x27;: &#x27;&#x27;, &#x27;log_filename&#x27;: &#x27;httpserver.log&#x27;, &#x27;profiler_dir&#x27;: None, &#x27;args&#x27;: [&#x27;&#x27;], &#x27;socket_timeout&#x27;: 5, &#x27;ssl_ca_certificate&#x27;: None, &#x27;scheduler&#x27;: None, &#x27;interfaces&#x27;: None, &#x27;ssl_private_key&#x27;: &#x27;&#x27;, &#x27;scheduler_groups&#x27;: None, &#x27;password&#x27;: &#x27;&lt;ask&gt;&#x27;, &#x27;request_queue_size&#x27;: 5, &#x27;ssl_certificate&#x27;: &#x27;&#x27;, &#x27;cronjob&#x27;: False, &#x27;numthreads&#x27;: None, &#x27;quiet&#x27;: False, &#x27;import_models&#x27;: False, &#x27;timeout&#x27;: 10, &#x27;plain&#x27;: False, &#x27;nobanner&#x27;: False}&gt;</div></td></tr><tr><td style="font-weight:bold;vertical-align:top;">db_sessions</td><td style="vertical-align:top;">:</td><td><div>set([])</div></td></tr><tr><td style="font-weight:bold;vertical-align:top;">debugging</td><td style="vertical-align:top;">:</td><td><div>True</div></td></tr><tr><td style="font-weight:bold;vertical-align:top;">gluon_parent</td><td style="vertical-align:top;">:</td><td><div>C:\\Python27\\web2py</div></td></tr><tr><td style="font-weight:bold;vertical-align:top;">is_jython</td><td style="vertical-align:top;">:</td><td><div>False</div></td></tr><tr><td style="font-weight:bold;vertical-align:top;">is_pypy</td><td style="vertical-align:top;">:</td><td><div>False</div></td></tr><tr><td style="font-weight:bold;vertical-align:top;">is_source</td><td style="vertical-align:top;">:</td><td><div>True</div></td></tr><tr><td style="font-weight:bold;vertical-align:top;">local_hosts</td><td style="vertical-align:top;">:</td><td><div><table><tr><td><div>::ffff:127.0.0.1</div></td></tr><tr><td><div>::1</div></td></tr><tr><td><div>fe80::c072:5ea7:a8ca:8401%3</div></td></tr><tr><td><div>192.168.0.102</div></td></tr><tr><td><div>127.0.0.1</div></td></tr><tr><td><div>Rahul</div></td></tr></table></div></td></tr><tr><td style="font-weight:bold;vertical-align:top;">web2py_version</td><td style="vertical-align:top;">:</td><td><div>2.9.5-stable+timestamp.2014.03.16.02.35.39</div></td></tr></table></div></td></tr><tr><td style="font-weight:bold;vertical-align:top;">is_https</td><td style="vertical-align:top;">:</td><td><div>False</div></td></tr><tr><td style="font-weight:bold;vertical-align:top;">is_local</td><td style="vertical-align:top;">:</td><td><div>True</div></td></tr><tr><td style="font-weight:bold;vertical-align:top;">is_restful</td><td style="vertical-align:top;">:</td><td><div>False</div></td></tr><tr><td style="font-weight:bold;vertical-align:top;">now</td><td style="vertical-align:top;">:</td><td><div>datetime.datetime(2014, 6, 10, 13, 37, 32, 848000)</div></td></tr><tr><td style="font-weight:bold;vertical-align:top;">raw_args</td><td style="vertical-align:top;">:</td><td><div>Prepratilipi/static/images/favicon.ico</div></td></tr><tr><td style="font-weight:bold;vertical-align:top;">raw_extension</td><td style="vertical-align:top;">:</td><td><div>None</div></td></tr><tr><td style="font-weight:bold;vertical-align:top;">url</td><td style="vertical-align:top;">:</td><td><div>/admin/default/edit/Prepratilipi/static/images/favicon.ico</div></td></tr><tr><td style="font-weight:bold;vertical-align:top;">utcnow</td><td style="vertical-align:top;">:</td><td><div>datetime.datetime(2014, 6, 10, 8, 7, 32, 848000)</div></td></tr><tr><td style="font-weight:bold;vertical-align:top;">uuid</td><td style="vertical-align:top;">:</td><td><div>admin/127.0.0.1.2014-06-10.13-37-32.fdad980b-4493-4fc3-b2bd-e4e844c015c0</div></td></tr><tr><td style="font-weight:bold;vertical-align:top;">wsgi</td><td style="vertical-align:top;">:</td><td><div>&lt;gluon.main.LazyWSGI object at 0x00000000038877B8&gt;</div></td></tr></table></div>'
tRp68
sS'frames'
p69
(lp70
(dp71
S'file'
p72
S'C:\\Python27\\web2py\\gluon\\restricted.py'
p73
sS'dump'
p74
(dp75
S'environment'
p76
S"{'A': <class 'gluon.html.A'>, 'ANY_OF': <class 'gluon.validators.ANY_OF'>, 'A_button': <function A_button>, 'B': <class 'gluon.html.B'>, 'BEAUTIFY': <class 'gluon.html.BEAUTIFY'>, 'BODY': <class 'gluon.html.BODY'>, 'BR': <class 'gluon.html.BR'>, 'BUTTON': <class 'gluon.html.BUTTON'>, 'CAT': <class 'gluon.html.CAT'>, 'CENTER': <class 'gluon.html.CENTER'>, ...}"
p77
sS'ccode'
p78
S'<code object <module> at 00000000098E0E30, file ...plications\\admin\\controllers/default.py", line 3>'
p79
ssS'lnum'
p80
I220
sS'lines'
p81
(dp82
I224
S'        # do not encapsulate (obfuscate) the original RestrictedError'
p83
sI215
S'    try:'
p84
sI216
S'        if isinstance(code, types.CodeType):'
p85
sI217
S'            ccode = code'
p86
sI218
S'        else:'
p87
sI219
S'            ccode = compile2(code, layer)'
p88
sI220
S'        exec ccode in environment'
p89
sI221
S'    except HTTP:'
p90
sI222
S'        raise'
p91
sI223
S'    except RestrictedError:'
p92
ssS'call'
p93
S"(code='# coding: utf8\\n\\nEXPERIMENTAL_STUFF = True\\nMAXNFI...=source)\\n\\n\\nresponse._vars=response._caller(edit)\\n', environment={'A': <class 'gluon.html.A'>, 'ANY_OF': <class 'gluon.validators.ANY_OF'>, 'A_button': <function A_button>, 'B': <class 'gluon.html.B'>, 'BEAUTIFY': <class 'gluon.html.BEAUTIFY'>, 'BODY': <class 'gluon.html.BODY'>, 'BR': <class 'gluon.html.BR'>, 'BUTTON': <class 'gluon.html.BUTTON'>, 'CAT': <class 'gluon.html.CAT'>, 'CENTER': <class 'gluon.html.CENTER'>, ...}, layer=r'C:\\Python27\\web2py\\applications\\admin\\controllers/default.py')"
p94
sS'func'
p95
S'restricted'
p96
sa(dp97
g72
S'C:\\Python27\\web2py\\applications\\admin\\controllers\\default.py'
p98
sg74
(dp99
sg80
I1945
sg81
(dp100
I1934
S'            filename = "web2py.plugin.%s.w2p" % cleanpath(plugin)'
p101
sI1935
S'        if plugin_install(app, urllib.urlopen(source),'
p102
sI1936
S'                          request, filename):'
p103
sI1937
S"            session.flash = T('New plugin installed: %s', filename)"
p104
sI1938
S'        else:'
p105
sI1939
S'            session.flash = \\'
p106
sI1940
S'                T(\'unable to install plugin "%s"\', filename)'
p107
sI1941
S'        redirect(URL(f="plugins", args=[app,]))'
p108
sI1942
S'    return dict(form=form, app=app, plugin=plugin, source=source)'
p109
sI1943
S''
ssg93
S'()'
p110
sg95
S'<module>'
p111
sa(dp112
g72
S'C:\\Python27\\web2py\\gluon\\globals.py'
p113
sg74
(dp114
S'self'
p115
S'undefined'
p116
sS'f'
S'<function edit>'
p117
ssg80
I385
sg81
(dp118
I384
S'        self._vars = None'
p119
sI385
S'        self._caller = lambda f: f()'
p120
sI386
S'        self._view_environment = None'
p121
sI387
S'        self._custom_commit = None'
p122
sI388
S'        self._custom_rollback = None'
p123
sI389
S''
sI380
S'        self.menu = []             # used by the default view layout'
p124
sI381
S'        self.files = []            # used by web2py_ajax.html'
p125
sI382
S'        self.generic_patterns = []  # patterns to allow generic views'
p126
sI383
S"        self.delimiters = ('{{', '}}')"
p127
ssg93
S'(f=<function edit>)'
p128
sg95
S'<lambda>'
p129
sa(dp130
g72
S'C:\\Python27\\web2py\\applications\\admin\\controllers\\default.py'
p131
sg74
(dp132
S'global response'
p133
S"<Storage {'body': <cStringIO.StringO object at 0...x00000000098C7048>, 'view': 'default/edit.html'}>"
p134
sS'response.json'
p135
S"<bound method Response.json of <Storage {'body':...00000000098C7048>, 'view': 'default/edit.html'}>>"
p136
sS'file_details'
p137
S"{'app': 'Prepratilipi', 'controller': None, 'data': '\\x00\\x00\\x01\\x00\\x01\\x00\\x10\\x10\\x02\\x00\\x00\\x00\\x00\\x00\\xb0\\x00\\x00\\x00\\x16\\x00\\x00\\x00(\\x00\\x00\\x00\\x10\\x00\\x00\\x00 \\x00\\x00\\x00\\x01\\x00\\x01\\x00\\x00\\x00\\x00\\x00@\\x00\\x00\\x00\\x00\\x00...\\x00\\x821\\x00\\x00\\xba\\xd6\\x00\\x00\\xba\\xd6\\x00\\x00\\xc61\\x00\\x00\\xff\\xff\\x00\\x00\\xd6\\x17\\x00\\x00\\xaa\\xf7\\x00\\x00\\xabq\\x00\\x00\\xab\\xb6\\x00\\x00\\xaa\\xd6\\x00\\x00\\xab1\\x00\\x00\\xff\\xff\\x00\\x00', 'edit_controller': None, 'editor_settings': {'closetag': 'true', 'codefolding': 'false', 'editor': 'default', 'highlightline': 'true', 'indentwithtabs': 'false', 'linenumbers': 'true', 'tabwidth': '4', 'theme': 'web2py'}, 'editviewlinks': None, 'file_hash': 'e16917bad986e06aecda858806bc9aa8', 'filename': 'Prepratilipi/static/images/favicon.ico', 'filetype': 'html', 'force': False, ...}"
p138
ssg80
I786
sg81
(dp139
I781
S"        file_details['plain_html'] = plain_html"
p140
sI782
S'        if is_mobile:'
p141
sI783
S"            return response.render('default.mobile/edit.html',"
p142
sI784
S'                                   file_details, editor_settings=preferences)'
p143
sI785
S'        else:'
p144
sI786
S'            return response.json(file_details)'
p145
sI787
S''
sI788
S'def todolist():'
p146
sI789
S'    """ Returns all TODO of the requested app'
p147
sI790
S'    """'
p148
ssg93
S'()'
p149
sg95
S'edit'
p150
sa(dp151
g72
S'C:\\Python27\\web2py\\gluon\\globals.py'
p152
sg74
(dp153
S'default'
p154
S'None'
p155
sS'global custom_json'
p156
S'<function custom_json>'
p157
sS'global json'
p158
S'<function json>'
p159
sS'data'
p160
S"{'app': 'Prepratilipi', 'controller': None, 'data': '\\x00\\x00\\x01\\x00\\x01\\x00\\x10\\x10\\x02\\x00\\x00\\x00\\x00\\x00\\xb0\\x00\\x00\\x00\\x16\\x00\\x00\\x00(\\x00\\x00\\x00\\x10\\x00\\x00\\x00 \\x00\\x00\\x00\\x01\\x00\\x01\\x00\\x00\\x00\\x00\\x00@\\x00\\x00\\x00\\x00\\x00...\\x00\\x821\\x00\\x00\\xba\\xd6\\x00\\x00\\xba\\xd6\\x00\\x00\\xc61\\x00\\x00\\xff\\xff\\x00\\x00\\xd6\\x17\\x00\\x00\\xaa\\xf7\\x00\\x00\\xabq\\x00\\x00\\xab\\xb6\\x00\\x00\\xaa\\xd6\\x00\\x00\\xab1\\x00\\x00\\xff\\xff\\x00\\x00', 'edit_controller': None, 'editor_settings': {'closetag': 'true', 'codefolding': 'false', 'editor': 'default', 'highlightline': 'true', 'indentwithtabs': 'false', 'linenumbers': 'true', 'tabwidth': '4', 'theme': 'web2py'}, 'editviewlinks': None, 'file_hash': 'e16917bad986e06aecda858806bc9aa8', 'filename': 'Prepratilipi/static/images/favicon.ico', 'filetype': 'html', 'force': False, ...}"
p161
ssg80
I614
sg81
(dp162
I609
S"            headers['Content-Disposition'] = \\"
p163
sI610
S'                \'attachment; filename="%s"\' % download_filename.replace(\'"\',\'\\"\')'
p164
sI611
S'        return self.stream(stream, chunk_size=chunk_size, request=request)'
p165
sI612
S''
sI613
S'    def json(self, data, default=None):'
p166
sI614
S'        return json(data, default=default or custom_json)'
p167
sI615
S''
sI616
S'    def xmlrpc(self, request, methods):'
p168
sI617
S'        """'
p169
sI618
S'        assuming::'
p170
ssg93
S"(self=<Storage {'body': <cStringIO.StringO object at 0...x00000000098C7048>, 'view': 'default/edit.html'}>, data={'app': 'Prepratilipi', 'controller': None, 'data': '\\x00\\x00\\x01\\x00\\x01\\x00\\x10\\x10\\x02\\x00\\x00\\x00\\x00\\x00\\xb0\\x00\\x00\\x00\\x16\\x00\\x00\\x00(\\x00\\x00\\x00\\x10\\x00\\x00\\x00 \\x00\\x00\\x00\\x01\\x00\\x01\\x00\\x00\\x00\\x00\\x00@\\x00\\x00\\x00\\x00\\x00...\\x00\\x821\\x00\\x00\\xba\\xd6\\x00\\x00\\xba\\xd6\\x00\\x00\\xc61\\x00\\x00\\xff\\xff\\x00\\x00\\xd6\\x17\\x00\\x00\\xaa\\xf7\\x00\\x00\\xabq\\x00\\x00\\xab\\xb6\\x00\\x00\\xaa\\xd6\\x00\\x00\\xab1\\x00\\x00\\xff\\xff\\x00\\x00', 'edit_controller': None, 'editor_settings': {'closetag': 'true', 'codefolding': 'false', 'editor': 'default', 'highlightline': 'true', 'indentwithtabs': 'false', 'linenumbers': 'true', 'tabwidth': '4', 'theme': 'web2py'}, 'editviewlinks': None, 'file_hash': 'e16917bad986e06aecda858806bc9aa8', 'filename': 'Prepratilipi/static/images/favicon.ico', 'filetype': 'html', 'force': False, ...}, default=None)"
p171
sg95
S'json'
p172
sa(dp173
g72
S'C:\\Python27\\web2py\\gluon\\serializers.py'
p174
sg74
(dp175
S'default'
p176
S'<function custom_json>'
p177
sS').replace'
p178
g116
ssg80
I124
sg81
(dp179
I128
S'def csv(value):'
p180
sI119
S''
sI120
S'def json(value, default=custom_json):'
p181
sI121
S'    # replace JavaScript incompatible spacing'
p182
sI122
S'    # http://timelessrepo.com/json-isnt-a-javascript-subset'
p183
sI123
S'    return json_parser.dumps(value,'
p184
sI124
S"        default=default).replace(ur'\\u2028',"
p185
sI125
S"                                 '\\\\u2028').replace(ur'\\2029',"
p186
sI126
S"                                                    '\\\\u2029')"
p187
sI127
S''
ssg93
S"(value={'app': 'Prepratilipi', 'controller': None, 'data': '\\x00\\x00\\x01\\x00\\x01\\x00\\x10\\x10\\x02\\x00\\x00\\x00\\x00\\x00\\xb0\\x00\\x00\\x00\\x16\\x00\\x00\\x00(\\x00\\x00\\x00\\x10\\x00\\x00\\x00 \\x00\\x00\\x00\\x01\\x00\\x01\\x00\\x00\\x00\\x00\\x00@\\x00\\x00\\x00\\x00\\x00...\\x00\\x821\\x00\\x00\\xba\\xd6\\x00\\x00\\xba\\xd6\\x00\\x00\\xc61\\x00\\x00\\xff\\xff\\x00\\x00\\xd6\\x17\\x00\\x00\\xaa\\xf7\\x00\\x00\\xabq\\x00\\x00\\xab\\xb6\\x00\\x00\\xaa\\xd6\\x00\\x00\\xab1\\x00\\x00\\xff\\xff\\x00\\x00', 'edit_controller': None, 'editor_settings': {'closetag': 'true', 'codefolding': 'false', 'editor': 'default', 'highlightline': 'true', 'indentwithtabs': 'false', 'linenumbers': 'true', 'tabwidth': '4', 'theme': 'web2py'}, 'editviewlinks': None, 'file_hash': 'e16917bad986e06aecda858806bc9aa8', 'filename': 'Prepratilipi/static/images/favicon.ico', 'filetype': 'html', 'force': False, ...}, default=<function custom_json>)"
p188
sg95
g172
sa(dp189
g72
S'C:\\Python27\\lib\\json\\__init__.py'
p190
sg74
(dp191
S'obj'
p192
S"{'app': 'Prepratilipi', 'controller': None, 'data': '\\x00\\x00\\x01\\x00\\x01\\x00\\x10\\x10\\x02\\x00\\x00\\x00\\x00\\x00\\xb0\\x00\\x00\\x00\\x16\\x00\\x00\\x00(\\x00\\x00\\x00\\x10\\x00\\x00\\x00 \\x00\\x00\\x00\\x01\\x00\\x01\\x00\\x00\\x00\\x00\\x00@\\x00\\x00\\x00\\x00\\x00...\\x00\\x821\\x00\\x00\\xba\\xd6\\x00\\x00\\xba\\xd6\\x00\\x00\\xc61\\x00\\x00\\xff\\xff\\x00\\x00\\xd6\\x17\\x00\\x00\\xaa\\xf7\\x00\\x00\\xabq\\x00\\x00\\xab\\xb6\\x00\\x00\\xaa\\xd6\\x00\\x00\\xab1\\x00\\x00\\xff\\xff\\x00\\x00', 'edit_controller': None, 'editor_settings': {'closetag': 'true', 'codefolding': 'false', 'editor': 'default', 'highlightline': 'true', 'indentwithtabs': 'false', 'linenumbers': 'true', 'tabwidth': '4', 'theme': 'web2py'}, 'editviewlinks': None, 'file_hash': 'e16917bad986e06aecda858806bc9aa8', 'filename': 'Prepratilipi/static/images/favicon.ico', 'filetype': 'html', 'force': False, ...}"
p193
sS'sort_keys'
p194
S'False'
p195
sS'kw'
p196
g21
sS').encode'
p197
g116
ssg80
I250
sg81
(dp198
I245
S'        cls = JSONEncoder'
p199
sI246
S'    return cls('
p200
sI247
S'        skipkeys=skipkeys, ensure_ascii=ensure_ascii,'
p201
sI248
S'        check_circular=check_circular, allow_nan=allow_nan, indent=indent,'
p202
sI249
S'        separators=separators, encoding=encoding, default=default,'
p203
sI250
S'        sort_keys=sort_keys, **kw).encode(obj)'
p204
sI251
S''
sI252
S''
sI253
S'_default_decoder = JSONDecoder(encoding=None, object_hook=None,'
p205
sI254
S'                               object_pairs_hook=None)'
p206
ssg93
S"(obj={'app': 'Prepratilipi', 'controller': None, 'data': '\\x00\\x00\\x01\\x00\\x01\\x00\\x10\\x10\\x02\\x00\\x00\\x00\\x00\\x00\\xb0\\x00\\x00\\x00\\x16\\x00\\x00\\x00(\\x00\\x00\\x00\\x10\\x00\\x00\\x00 \\x00\\x00\\x00\\x01\\x00\\x01\\x00\\x00\\x00\\x00\\x00@\\x00\\x00\\x00\\x00\\x00...\\x00\\x821\\x00\\x00\\xba\\xd6\\x00\\x00\\xba\\xd6\\x00\\x00\\xc61\\x00\\x00\\xff\\xff\\x00\\x00\\xd6\\x17\\x00\\x00\\xaa\\xf7\\x00\\x00\\xabq\\x00\\x00\\xab\\xb6\\x00\\x00\\xaa\\xd6\\x00\\x00\\xab1\\x00\\x00\\xff\\xff\\x00\\x00', 'edit_controller': None, 'editor_settings': {'closetag': 'true', 'codefolding': 'false', 'editor': 'default', 'highlightline': 'true', 'indentwithtabs': 'false', 'linenumbers': 'true', 'tabwidth': '4', 'theme': 'web2py'}, 'editviewlinks': None, 'file_hash': 'e16917bad986e06aecda858806bc9aa8', 'filename': 'Prepratilipi/static/images/favicon.ico', 'filetype': 'html', 'force': False, ...}, skipkeys=False, ensure_ascii=True, check_circular=True, allow_nan=True, cls=<class 'json.encoder.JSONEncoder'>, indent=None, separators=None, encoding='utf-8', default=<function custom_json>, sort_keys=False, **kw={})"
p207
sg95
S'dumps'
p208
sa(dp209
g72
S'C:\\Python27\\lib\\json\\encoder.py'
p210
sg74
(dp211
S'self'
p212
S'<json.encoder.JSONEncoder object>'
p213
sS'o'
S"{'app': 'Prepratilipi', 'controller': None, 'data': '\\x00\\x00\\x01\\x00\\x01\\x00\\x10\\x10\\x02\\x00\\x00\\x00\\x00\\x00\\xb0\\x00\\x00\\x00\\x16\\x00\\x00\\x00(\\x00\\x00\\x00\\x10\\x00\\x00\\x00 \\x00\\x00\\x00\\x01\\x00\\x01\\x00\\x00\\x00\\x00\\x00@\\x00\\x00\\x00\\x00\\x00...\\x00\\x821\\x00\\x00\\xba\\xd6\\x00\\x00\\xba\\xd6\\x00\\x00\\xc61\\x00\\x00\\xff\\xff\\x00\\x00\\xd6\\x17\\x00\\x00\\xaa\\xf7\\x00\\x00\\xabq\\x00\\x00\\xab\\xb6\\x00\\x00\\xaa\\xd6\\x00\\x00\\xab1\\x00\\x00\\xff\\xff\\x00\\x00', 'edit_controller': None, 'editor_settings': {'closetag': 'true', 'codefolding': 'false', 'editor': 'default', 'highlightline': 'true', 'indentwithtabs': 'false', 'linenumbers': 'true', 'tabwidth': '4', 'theme': 'web2py'}, 'editviewlinks': None, 'file_hash': 'e16917bad986e06aecda858806bc9aa8', 'filename': 'Prepratilipi/static/images/favicon.ico', 'filetype': 'html', 'force': False, ...}"
p214
sS'self.iterencode'
p215
S'<bound method JSONEncoder.iterencode of <json.encoder.JSONEncoder object>>'
p216
sS'_one_shot'
p217
g116
sS'chunks'
p218
g116
sS'builtinTrue'
p219
S'True'
p220
ssg80
I207
sg81
(dp221
I202
S'            else:'
p222
sI203
S'                return encode_basestring(o)'
p223
sI204
S"        # This doesn't pass the iterator directly to ''.join() because the"
p224
sI205
S"        # exceptions aren't as detailed.  The list call should be roughly"
p225
sI206
S"        # equivalent to the PySequence_Fast that ''.join() would do."
p226
sI207
S'        chunks = self.iterencode(o, _one_shot=True)'
p227
sI208
S'        if not isinstance(chunks, (list, tuple)):'
p228
sI209
S'            chunks = list(chunks)'
p229
sI210
S"        return ''.join(chunks)"
p230
sI211
S''
ssg93
S"(self=<json.encoder.JSONEncoder object>, o={'app': 'Prepratilipi', 'controller': None, 'data': '\\x00\\x00\\x01\\x00\\x01\\x00\\x10\\x10\\x02\\x00\\x00\\x00\\x00\\x00\\xb0\\x00\\x00\\x00\\x16\\x00\\x00\\x00(\\x00\\x00\\x00\\x10\\x00\\x00\\x00 \\x00\\x00\\x00\\x01\\x00\\x01\\x00\\x00\\x00\\x00\\x00@\\x00\\x00\\x00\\x00\\x00...\\x00\\x821\\x00\\x00\\xba\\xd6\\x00\\x00\\xba\\xd6\\x00\\x00\\xc61\\x00\\x00\\xff\\xff\\x00\\x00\\xd6\\x17\\x00\\x00\\xaa\\xf7\\x00\\x00\\xabq\\x00\\x00\\xab\\xb6\\x00\\x00\\xaa\\xd6\\x00\\x00\\xab1\\x00\\x00\\xff\\xff\\x00\\x00', 'edit_controller': None, 'editor_settings': {'closetag': 'true', 'codefolding': 'false', 'editor': 'default', 'highlightline': 'true', 'indentwithtabs': 'false', 'linenumbers': 'true', 'tabwidth': '4', 'theme': 'web2py'}, 'editviewlinks': None, 'file_hash': 'e16917bad986e06aecda858806bc9aa8', 'filename': 'Prepratilipi/static/images/favicon.ico', 'filetype': 'html', 'force': False, ...})"
p231
sg95
S'encode'
p232
sa(dp233
g72
S'C:\\Python27\\lib\\json\\encoder.py'
p234
sg74
(dp235
S'_iterencode'
p236
S'<_json.Encoder object>'
p237
sS'o'
S"{'app': 'Prepratilipi', 'controller': None, 'data': '\\x00\\x00\\x01\\x00\\x01\\x00\\x10\\x10\\x02\\x00\\x00\\x00\\x00\\x00\\xb0\\x00\\x00\\x00\\x16\\x00\\x00\\x00(\\x00\\x00\\x00\\x10\\x00\\x00\\x00 \\x00\\x00\\x00\\x01\\x00\\x01\\x00\\x00\\x00\\x00\\x00@\\x00\\x00\\x00\\x00\\x00...\\x00\\x821\\x00\\x00\\xba\\xd6\\x00\\x00\\xba\\xd6\\x00\\x00\\xc61\\x00\\x00\\xff\\xff\\x00\\x00\\xd6\\x17\\x00\\x00\\xaa\\xf7\\x00\\x00\\xabq\\x00\\x00\\xab\\xb6\\x00\\x00\\xaa\\xd6\\x00\\x00\\xab1\\x00\\x00\\xff\\xff\\x00\\x00', 'edit_controller': None, 'editor_settings': {'closetag': 'true', 'codefolding': 'false', 'editor': 'default', 'highlightline': 'true', 'indentwithtabs': 'false', 'linenumbers': 'true', 'tabwidth': '4', 'theme': 'web2py'}, 'editviewlinks': None, 'file_hash': 'e16917bad986e06aecda858806bc9aa8', 'filename': 'Prepratilipi/static/images/favicon.ico', 'filetype': 'html', 'force': False, ...}"
p238
ssg80
I270
sg81
(dp239
I265
S'        else:'
p240
sI266
S'            _iterencode = _make_iterencode('
p241
sI267
S'                markers, self.default, _encoder, self.indent, floatstr,'
p242
sI268
S'                self.key_separator, self.item_separator, self.sort_keys,'
p243
sI269
S'                self.skipkeys, _one_shot)'
p244
sI270
S'        return _iterencode(o, 0)'
p245
sI271
S''
sI272
S'def _make_iterencode(markers, _default, _encoder, _indent, _floatstr,'
p246
sI273
S'        _key_separator, _item_separator, _sort_keys, _skipkeys, _one_shot,'
p247
sI274
S'        ## HACK: hand-optimized bytecode; turn globals into locals'
p248
ssg93
S"(self=<json.encoder.JSONEncoder object>, o={'app': 'Prepratilipi', 'controller': None, 'data': '\\x00\\x00\\x01\\x00\\x01\\x00\\x10\\x10\\x02\\x00\\x00\\x00\\x00\\x00\\xb0\\x00\\x00\\x00\\x16\\x00\\x00\\x00(\\x00\\x00\\x00\\x10\\x00\\x00\\x00 \\x00\\x00\\x00\\x01\\x00\\x01\\x00\\x00\\x00\\x00\\x00@\\x00\\x00\\x00\\x00\\x00...\\x00\\x821\\x00\\x00\\xba\\xd6\\x00\\x00\\xba\\xd6\\x00\\x00\\xc61\\x00\\x00\\xff\\xff\\x00\\x00\\xd6\\x17\\x00\\x00\\xaa\\xf7\\x00\\x00\\xabq\\x00\\x00\\xab\\xb6\\x00\\x00\\xaa\\xd6\\x00\\x00\\xab1\\x00\\x00\\xff\\xff\\x00\\x00', 'edit_controller': None, 'editor_settings': {'closetag': 'true', 'codefolding': 'false', 'editor': 'default', 'highlightline': 'true', 'indentwithtabs': 'false', 'linenumbers': 'true', 'tabwidth': '4', 'theme': 'web2py'}, 'editviewlinks': None, 'file_hash': 'e16917bad986e06aecda858806bc9aa8', 'filename': 'Prepratilipi/static/images/favicon.ico', 'filetype': 'html', 'force': False, ...}, _one_shot=True)"
p249
sg95
S'iterencode'
p250
sasS'pyver'
p251
S'Python 2.7.7: C:\\Python27\\python.exe (prefix: C:\\Python27)'
p252
sS'session'
p253
g67
(S'si\x03\x00\x00<div><table><tr><td style="font-weight:bold;vertical-align:top;">authorized</td><td style="vertical-align:top;">:</td><td><div>True</div></td></tr><tr><td style="font-weight:bold;vertical-align:top;">check_version</td><td style="vertical-align:top;">:</td><td><div>False</div></td></tr><tr><td style="font-weight:bold;vertical-align:top;">is_mobile</td><td style="vertical-align:top;">:</td><td><div>auto</div></td></tr><tr><td style="font-weight:bold;vertical-align:top;">last_time</td><td style="vertical-align:top;">:</td><td><div>1402387652.848</div></td></tr><tr><td style="font-weight:bold;vertical-align:top;">pam_user</td><td style="vertical-align:top;">:</td><td><div>None</div></td></tr><tr><td style="font-weight:bold;vertical-align:top;">token</td><td style="vertical-align:top;">:</td><td><div>a4ba4a07-5407-4d28-b666-ecee8abffe91</div></td></tr></table></div>'
tRp254
sS'etype'
p255
S"<type 'exceptions.UnicodeDecodeError'>"
p256
sS'date'
p257
S'Tue Jun 10 13:37:32 2014'
p258
sS'response'
p259
g67
(S'sI\x1f\x00\x00<div><table><tr><td style="font-weight:bold;vertical-align:top;">body</td><td style="vertical-align:top;">:</td><td><div>&lt;cStringIO.StringO object at 0x0000000009D402D0&gt;</div></td></tr><tr><td style="font-weight:bold;vertical-align:top;">cookies</td><td style="vertical-align:top;">:</td><td><div><table><tr><td style="font-weight:bold;vertical-align:top;">session_id_admin</td><td style="vertical-align:top;">:</td><td><div>127.0.0.1-e27d0521-cd3a-483f-bf40-655dca20b04d<table><tr><td style="font-weight:bold;vertical-align:top;">comment</td><td style="vertical-align:top;">:</td><td><div></div></td></tr><tr><td style="font-weight:bold;vertical-align:top;">domain</td><td style="vertical-align:top;">:</td><td><div></div></td></tr><tr><td style="font-weight:bold;vertical-align:top;">expires</td><td style="vertical-align:top;">:</td><td><div></div></td></tr><tr><td style="font-weight:bold;vertical-align:top;">httponly</td><td style="vertical-align:top;">:</td><td><div></div></td></tr><tr><td style="font-weight:bold;vertical-align:top;">max-age</td><td style="vertical-align:top;">:</td><td><div></div></td></tr><tr><td style="font-weight:bold;vertical-align:top;">path</td><td style="vertical-align:top;">:</td><td><div>/</div></td></tr><tr><td style="font-weight:bold;vertical-align:top;">secure</td><td style="vertical-align:top;">:</td><td><div></div></td></tr><tr><td style="font-weight:bold;vertical-align:top;">version</td><td style="vertical-align:top;">:</td><td><div></div></td></tr></table></div></td></tr></table></div></td></tr><tr><td style="font-weight:bold;vertical-align:top;">delimiters</td><td style="vertical-align:top;">:</td><td><div><table><tr><td><div>{{</div></td></tr><tr><td><div>}}</div></td></tr></table></div></td></tr><tr><td style="font-weight:bold;vertical-align:top;">files</td><td style="vertical-align:top;">:</td><td><div><table><tr><td><div>/admin/static/plugin_multiselect/jquery.multi-select.js</div></td></tr><tr><td><div>/admin/static/plugin_multiselect/multi-select.css</div></td></tr><tr><td><div>/admin/static/plugin_multiselect/start.js</div></td></tr><tr><td><div>/admin/static/plugin_statebutton/js/bootstrap-switch.js</div></td></tr><tr><td><div>/admin/static/plugin_statebutton/css/bootstrap-switch.css</div></td></tr></table></div></td></tr><tr><td style="font-weight:bold;vertical-align:top;">flash</td><td style="vertical-align:top;">:</td><td><div></div></td></tr><tr><td style="font-weight:bold;vertical-align:top;">generic_patterns</td><td style="vertical-align:top;">:</td><td><div><table></table></div></td></tr><tr><td style="font-weight:bold;vertical-align:top;">headers</td><td style="vertical-align:top;">:</td><td><div><table><tr><td style="font-weight:bold;vertical-align:top;">X-Powered-By</td><td style="vertical-align:top;">:</td><td><div>web2py</div></td></tr></table></div></td></tr><tr><td style="font-weight:bold;vertical-align:top;">menu</td><td style="vertical-align:top;">:</td><td><div><table><tr><td><div><table><tr><td><div>Site</div></td></tr><tr><td><div>False</div></td></tr><tr><td><div>/admin/default/site</div></td></tr></table></div></td></tr><tr><td><div><table><tr><td><div>Edit</div></td></tr><tr><td><div>False</div></td></tr><tr><td><div>/admin/default/design/Prepratilipi</div></td></tr></table></div></td></tr><tr><td><div><table><tr><td><div>About</div></td></tr><tr><td><div>False</div></td></tr><tr><td><div>/admin/default/about/Prepratilipi</div></td></tr></table></div></td></tr><tr><td><div><table><tr><td><div>Errors</div></td></tr><tr><td><div>False</div></td></tr><tr><td><div>/admin/default/errors/Prepratilipi</div></td></tr></table></div></td></tr><tr><td><div><table><tr><td><div>Versioning</div></td></tr><tr><td><div>False</div></td></tr><tr><td><div>/admin/mercurial/commit/Prepratilipi</div></td></tr></table></div></td></tr><tr><td><div><table><tr><td><div>Help</div></td></tr><tr><td><div>False</div></td></tr><tr><td><div>/examples/default/documentation</div></td></tr></table></div></td></tr><tr><td><div><table><tr><td><div>Logout</div></td></tr><tr><td><div>False</div></td></tr><tr><td><div>/admin/default/logout</div></td></tr></table></div></td></tr><tr><td><div><table><tr><td><div>Debug</div></td></tr><tr><td><div>False</div></td></tr><tr><td><div>/admin/debug/interact</div></td></tr></table></div></td></tr></table></div></td></tr><tr><td style="font-weight:bold;vertical-align:top;">meta</td><td style="vertical-align:top;">:</td><td><div><table></table></div></td></tr><tr><td style="font-weight:bold;vertical-align:top;">models_to_run</td><td style="vertical-align:top;">:</td><td><div><table><tr><td><div>^\\w+\\.py$</div></td></tr><tr><td><div>^default/\\w+\\.py$</div></td></tr><tr><td><div>^default/edit/\\w+\\.py$</div></td></tr></table></div></td></tr><tr><td style="font-weight:bold;vertical-align:top;">postprocessing</td><td style="vertical-align:top;">:</td><td><div><table></table></div></td></tr><tr><td style="font-weight:bold;vertical-align:top;">session_client</td><td style="vertical-align:top;">:</td><td><div>127.0.0.1</div></td></tr><tr><td style="font-weight:bold;vertical-align:top;">session_cookie_compression_level</td><td style="vertical-align:top;">:</td><td><div>None</div></td></tr><tr><td style="font-weight:bold;vertical-align:top;">session_cookie_expires</td><td style="vertical-align:top;">:</td><td><div>None</div></td></tr><tr><td style="font-weight:bold;vertical-align:top;">session_cookie_key</td><td style="vertical-align:top;">:</td><td><div>None</div></td></tr><tr><td style="font-weight:bold;vertical-align:top;">session_data_name</td><td style="vertical-align:top;">:</td><td><div>session_data_admin</div></td></tr><tr><td style="font-weight:bold;vertical-align:top;">session_file</td><td style="vertical-align:top;">:</td><td><div>&lt;open file &#x27;C:\\\\Python27\\\\web2py\\\\applications\\\\admin\\\\sessions\\\\127.0.0.1-e27d0521-cd3a-483f-bf40-655dca20b04d&#x27;, mode &#x27;rb+&#x27; at 0x0000000009DE6C00&gt;</div></td></tr><tr><td style="font-weight:bold;vertical-align:top;">session_filename</td><td style="vertical-align:top;">:</td><td><div>C:\\Python27\\web2py\\applications\\admin\\sessions\\127.0.0.1-e27d0521-cd3a-483f-bf40-655dca20b04d</div></td></tr><tr><td style="font-weight:bold;vertical-align:top;">session_hash</td><td style="vertical-align:top;">:</td><td><div>f93a918148c9f0c2cc9b2aeace8f57ad</div></td></tr><tr><td style="font-weight:bold;vertical-align:top;">session_id</td><td style="vertical-align:top;">:</td><td><div>127.0.0.1-e27d0521-cd3a-483f-bf40-655dca20b04d</div></td></tr><tr><td style="font-weight:bold;vertical-align:top;">session_id_name</td><td style="vertical-align:top;">:</td><td><div>session_id_admin</div></td></tr><tr><td style="font-weight:bold;vertical-align:top;">session_locked</td><td style="vertical-align:top;">:</td><td><div>True</div></td></tr><tr><td style="font-weight:bold;vertical-align:top;">session_masterapp</td><td style="vertical-align:top;">:</td><td><div>admin</div></td></tr><tr><td style="font-weight:bold;vertical-align:top;">session_new</td><td style="vertical-align:top;">:</td><td><div>False</div></td></tr><tr><td style="font-weight:bold;vertical-align:top;">session_storage_type</td><td style="vertical-align:top;">:</td><td><div>file</div></td></tr><tr><td style="font-weight:bold;vertical-align:top;">static_version</td><td style="vertical-align:top;">:</td><td><div>2.9.5</div></td></tr><tr><td style="font-weight:bold;vertical-align:top;">status</td><td style="vertical-align:top;">:</td><td><div>200</div></td></tr><tr><td style="font-weight:bold;vertical-align:top;">subtitle</td><td style="vertical-align:top;">:</td><td><div>admin</div></td></tr><tr><td style="font-weight:bold;vertical-align:top;">title</td><td style="vertical-align:top;">:</td><td><div>edit Prepratilipi/static/images/favicon.ico</div></td></tr><tr><td style="font-weight:bold;vertical-align:top;">view</td><td style="vertical-align:top;">:</td><td><div>default/edit.html</div></td></tr></table></div>'
tRp260
sS'locals'
p261
(dp262
S'_encoder'
p263
S'<built-in function encode_basestring_ascii>'
p264
sS'floatstr'
p265
S'<function floatstr>'
p266
sS'self'
p267
S'<json.encoder.JSONEncoder object>'
p268
sS'markers'
p269
S"{165473272L: {'app': 'Prepratilipi', 'controller': None, 'data': '\\x00\\x00\\x01\\x00\\x01\\x00\\x10\\x10\\x02\\x00\\x00\\x00\\x00\\x00\\xb0\\x00\\x00\\x00\\x16\\x00\\x00\\x00(\\x00\\x00\\x00\\x10\\x00\\x00\\x00 \\x00\\x00\\x00\\x01\\x00\\x01\\x00\\x00\\x00\\x00\\x00@\\x00\\x00\\x00\\x00\\x00...\\x00\\x821\\x00\\x00\\xba\\xd6\\x00\\x00\\xba\\xd6\\x00\\x00\\xc61\\x00\\x00\\xff\\xff\\x00\\x00\\xd6\\x17\\x00\\x00\\xaa\\xf7\\x00\\x00\\xabq\\x00\\x00\\xab\\xb6\\x00\\x00\\xaa\\xd6\\x00\\x00\\xab1\\x00\\x00\\xff\\xff\\x00\\x00', 'edit_controller': None, 'editor_settings': {'closetag': 'true', 'codefolding': 'false', 'editor': 'default', 'highlightline': 'true', 'indentwithtabs': 'false', 'linenumbers': 'true', 'tabwidth': '4', 'theme': 'web2py'}, 'editviewlinks': None, 'file_hash': 'e16917bad986e06aecda858806bc9aa8', 'filename': 'Prepratilipi/static/images/favicon.ico', 'filetype': 'html', 'force': False, ...}}"
p270
sS'_one_shot'
p271
g220
sS'o'
S"{'app': 'Prepratilipi', 'controller': None, 'data': '\\x00\\x00\\x01\\x00\\x01\\x00\\x10\\x10\\x02\\x00\\x00\\x00\\x00\\x00\\xb0\\x00\\x00\\x00\\x16\\x00\\x00\\x00(\\x00\\x00\\x00\\x10\\x00\\x00\\x00 \\x00\\x00\\x00\\x01\\x00\\x01\\x00\\x00\\x00\\x00\\x00@\\x00\\x00\\x00\\x00\\x00...\\x00\\x821\\x00\\x00\\xba\\xd6\\x00\\x00\\xba\\xd6\\x00\\x00\\xc61\\x00\\x00\\xff\\xff\\x00\\x00\\xd6\\x17\\x00\\x00\\xaa\\xf7\\x00\\x00\\xabq\\x00\\x00\\xab\\xb6\\x00\\x00\\xaa\\xd6\\x00\\x00\\xab1\\x00\\x00\\xff\\xff\\x00\\x00', 'edit_controller': None, 'editor_settings': {'closetag': 'true', 'codefolding': 'false', 'editor': 'default', 'highlightline': 'true', 'indentwithtabs': 'false', 'linenumbers': 'true', 'tabwidth': '4', 'theme': 'web2py'}, 'editviewlinks': None, 'file_hash': 'e16917bad986e06aecda858806bc9aa8', 'filename': 'Prepratilipi/static/images/favicon.ico', 'filetype': 'html', 'force': False, ...}"
p272
sS'_iterencode'
p273
S'<_json.Encoder object>'
p274
sssS'traceback'
p275
S'Traceback (most recent call last):\n  File "C:\\Python27\\web2py\\gluon\\restricted.py", line 220, in restricted\n    exec ccode in environment\n  File "C:\\Python27\\web2py\\applications\\admin\\controllers/default.py", line 1945, in <module>\n  File "C:\\Python27\\web2py\\gluon\\globals.py", line 385, in <lambda>\n    self._caller = lambda f: f()\n  File "C:\\Python27\\web2py\\applications\\admin\\controllers/default.py", line 786, in edit\n    return response.json(file_details)\n  File "C:\\Python27\\web2py\\gluon\\globals.py", line 614, in json\n    return json(data, default=default or custom_json)\n  File "C:\\Python27\\web2py\\gluon\\serializers.py", line 124, in json\n    default=default).replace(ur\'\\u2028\',\n  File "C:\\Python27\\lib\\json\\__init__.py", line 250, in dumps\n    sort_keys=sort_keys, **kw).encode(obj)\n  File "C:\\Python27\\lib\\json\\encoder.py", line 207, in encode\n    chunks = self.iterencode(o, _one_shot=True)\n  File "C:\\Python27\\lib\\json\\encoder.py", line 270, in iterencode\n    return _iterencode(o, 0)\nUnicodeDecodeError: \'utf8\' codec can\'t decode byte 0xb0 in position 14: invalid start byte\n'
p276
s.